                              1 ;--------------------------------------------------------
                              2 ; File Created by SDCC : FreeWare ANSI-C Compiler
                              3 ; Version 2.3.1 Sat Apr  4 17:10:56 2015
                              4 
                              5 ;--------------------------------------------------------
                              6 	.module lcc542120
                              7 	
                              8 ;--------------------------------------------------------
                              9 ; Public variables in this module
                             10 ;--------------------------------------------------------
                             11 	.globl _main
                             12 	.globl _sspy
                             13 	.globl _sspx
                             14 	.globl _sposy
                             15 	.globl _sposx
                             16 	.globl _wspy
                             17 	.globl _wspx
                             18 	.globl _wposy
                             19 	.globl _wposx
                             20 	.globl _bspy
                             21 	.globl _bspx
                             22 	.globl _bposy
                             23 	.globl _bposx
                             24 	.globl _sframe
                             25 	.globl _doorpos
                             26 	.globl _doorstate
                             27 	.globl _film
                             28 	.globl _door4_tiles
                             29 	.globl _door3_tiles
                             30 	.globl _door2_tiles
                             31 	.globl _door1_tiles
                             32 	.globl _frame_tiles
                             33 	.globl _earth_tiles
                             34 	.globl _bkg_tiles
                             35 	.globl _bkg_data
                             36 	.globl _frame_data
                             37 	.globl _earth_data
                             38 	.globl _std_data
                             39 	.globl _fade
                             40 	.globl _scroll
                             41 	.globl _door
                             42 	.globl _animate_sprite
                             43 	.globl _tile_sprite
                             44 	.globl _place_sprite
                             45 ;--------------------------------------------------------
                             46 ; special function registers
                             47 ;--------------------------------------------------------
                             48 ;--------------------------------------------------------
                             49 ; special function bits 
                             50 ;--------------------------------------------------------
                             51 ;--------------------------------------------------------
                             52 ; internal ram data
                             53 ;--------------------------------------------------------
                             54 	.area _DATA
   0000                      55 _time:
   0000                      56 	.ds 1
   0001                      57 _doorstate::
   0001                      58 	.ds 1
   0002                      59 _doorpos::
   0002                      60 	.ds 1
   0003                      61 _color:
   0003                      62 	.ds 1
   0004                      63 _sframe::
   0004                      64 	.ds 1
   0005                      65 _bposx::
   0005                      66 	.ds 2
   0007                      67 _bposy::
   0007                      68 	.ds 2
   0009                      69 _bspx::
   0009                      70 	.ds 2
   000B                      71 _bspy::
   000B                      72 	.ds 2
   000D                      73 _wposx::
   000D                      74 	.ds 2
   000F                      75 _wposy::
   000F                      76 	.ds 2
   0011                      77 _wspx::
   0011                      78 	.ds 2
   0013                      79 _wspy::
   0013                      80 	.ds 2
   0015                      81 _sposx::
   0015                      82 	.ds 2
   0017                      83 _sposy::
   0017                      84 	.ds 2
   0019                      85 _sspx::
   0019                      86 	.ds 2
   001B                      87 _sspy::
   001B                      88 	.ds 2
                             89 ;--------------------------------------------------------
                             90 ; overlayable items in internal ram 
                             91 ;--------------------------------------------------------
                             92 	.area _OVERLAY
                             93 ;--------------------------------------------------------
                             94 ; indirectly addressable internal ram data
                             95 ;--------------------------------------------------------
                             96 	.area _ISEG
                             97 ;--------------------------------------------------------
                             98 ; bit data
                             99 ;--------------------------------------------------------
                            100 	.area _BSEG
                            101 ;--------------------------------------------------------
                            102 ; external ram data
                            103 ;--------------------------------------------------------
                            104 	.area _XSEG
                            105 ;--------------------------------------------------------
                            106 ; global & static initialisations
                            107 ;--------------------------------------------------------
                            108 	.area _GSINIT
                            109 	.area _GSFINAL
                            110 	.area _GSINIT
                            111 ;--------------------------------------------------------
                            112 ; Home
                            113 ;--------------------------------------------------------
                            114 	.area _HOME
                            115 	.area _CODE
                            116 ;--------------------------------------------------------
                            117 ; code
                            118 ;--------------------------------------------------------
                            119 	.area _CODE
                            120 ;	galaxy.c 389
                            121 ;	genLabel
                            122 ;	genFunction
                            123 ;	---------------------------------
                            124 ; Function fade
                            125 ; ---------------------------------
   0000                     126 ___fade_start:
   0000                     127 _fade:
                            128 	
                            129 ;	galaxy.c 391
                            130 ;	genCmpEq
                            131 ;	AOP_HL for _color
                            132 ; genCmpEq: left 1, right 1, result 0
   0000 21 03 00            133 	ld	hl,#_color
   0003 7E                  134 	ld	a,(hl)
   0004 B7                  135 	or	a,a
   0005 C2 10 00            136 	jp	nz,00102$
   0008 18 03               137 	jr	00119$
   000A                     138 00118$:
   000A C3 10 00            139 	jp	00102$
   000D                     140 00119$:
                            141 ;	galaxy.c 392
                            142 ;	genRet
   000D C3 70 00            143 	jp	00110$
                            144 ;	genLabel
   0010                     145 00102$:
                            146 ;	galaxy.c 393
                            147 ;	genCmpEq
                            148 ;	AOP_HL for _color
                            149 ; genCmpEq: left 1, right 1, result 0
   0010 21 03 00            150 	ld	hl,#_color
   0013 7E                  151 	ld	a,(hl)
   0014 FE 10               152 	cp	a,#0x10
   0016 CA 66 00            153 	jp	z,00108$
   0019                     154 00120$:
                            155 ;	genCmpEq
                            156 ;	AOP_HL for _color
                            157 ; genCmpEq: left 1, right 1, result 0
   0019 21 03 00            158 	ld	hl,#_color
   001C 7E                  159 	ld	a,(hl)
   001D FE 20               160 	cp	a,#0x20
   001F CA 4B 00            161 	jp	z,00103$
   0022                     162 00121$:
                            163 ;	genCmpEq
                            164 ;	AOP_HL for _color
                            165 ; genCmpEq: left 1, right 1, result 0
   0022 21 03 00            166 	ld	hl,#_color
   0025 7E                  167 	ld	a,(hl)
   0026 FE 30               168 	cp	a,#0x30
   0028 CA 54 00            169 	jp	z,00105$
   002B                     170 00122$:
                            171 ;	genCmpEq
                            172 ;	AOP_HL for _color
                            173 ; genCmpEq: left 1, right 1, result 0
   002B 21 03 00            174 	ld	hl,#_color
   002E 7E                  175 	ld	a,(hl)
   002F FE 40               176 	cp	a,#0x40
   0031 CA 5D 00            177 	jp	z,00107$
   0034                     178 00123$:
                            179 ;	genCmpEq
                            180 ;	AOP_HL for _color
                            181 ; genCmpEq: left 1, right 1, result 0
   0034 21 03 00            182 	ld	hl,#_color
   0037 7E                  183 	ld	a,(hl)
   0038 FE 50               184 	cp	a,#0x50
   003A CA 54 00            185 	jp	z,00105$
   003D                     186 00124$:
                            187 ;	genCmpEq
                            188 ;	AOP_HL for _color
                            189 ; genCmpEq: left 1, right 1, result 0
   003D 21 03 00            190 	ld	hl,#_color
   0040 7E                  191 	ld	a,(hl)
   0041 FE 60               192 	cp	a,#0x60
   0043 C2 6C 00            193 	jp	nz,00109$
   0046 18 03               194 	jr	00126$
   0048                     195 00125$:
   0048 C3 6C 00            196 	jp	00109$
   004B                     197 00126$:
                            198 ;	galaxy.c 397
                            199 ;	genLabel
   004B                     200 00103$:
                            201 ;	genAssign
   004B 01 47 FF            202 	ld	bc,#0xFF47
                            203 ;	genAssign (pointer)
   004E 3E F9               204 	ld	a,#0xF9
   0050 02                  205 	ld	(bc),a
                            206 ;	galaxy.c 398
                            207 ;	genGoto
   0051 C3 6C 00            208 	jp	00109$
                            209 ;	galaxy.c 401
                            210 ;	genLabel
   0054                     211 00105$:
                            212 ;	genAssign
   0054 01 47 FF            213 	ld	bc,#0xFF47
                            214 ;	genAssign (pointer)
   0057 3E FE               215 	ld	a,#0xFE
   0059 02                  216 	ld	(bc),a
                            217 ;	galaxy.c 402
                            218 ;	genGoto
   005A C3 6C 00            219 	jp	00109$
                            220 ;	galaxy.c 404
                            221 ;	genLabel
   005D                     222 00107$:
                            223 ;	genAssign
   005D 01 47 FF            224 	ld	bc,#0xFF47
                            225 ;	genAssign (pointer)
   0060 3E FF               226 	ld	a,#0xFF
   0062 02                  227 	ld	(bc),a
                            228 ;	galaxy.c 405
                            229 ;	genGoto
   0063 C3 6C 00            230 	jp	00109$
                            231 ;	galaxy.c 407
                            232 ;	genLabel
   0066                     233 00108$:
                            234 ;	genAssign
   0066 01 47 FF            235 	ld	bc,#0xFF47
                            236 ;	genAssign (pointer)
   0069 3E E4               237 	ld	a,#0xE4
   006B 02                  238 	ld	(bc),a
                            239 ;	galaxy.c 409
                            240 ;	genLabel
   006C                     241 00109$:
                            242 ;	galaxy.c 410
                            243 ;	genMinus
                            244 ;	AOP_HL for _color
   006C 21 03 00            245 	ld	hl,#_color
   006F 35                  246 	dec	(hl)
                            247 ;	genLabel
   0070                     248 00110$:
                            249 ;	genEndFunction
                            250 	
   0070 C9                  251 	ret
   0071                     252 ___fade_end:
   0071                     253 _std_data:
   0071 FF                  254 	.db #0xFF
   0072 FF                  255 	.db #0xFF
   0073 FF                  256 	.db #0xFF
   0074 FF                  257 	.db #0xFF
   0075 FF                  258 	.db #0xFF
   0076 FF                  259 	.db #0xFF
   0077 FF                  260 	.db #0xFF
   0078 FF                  261 	.db #0xFF
   0079 FF                  262 	.db #0xFF
   007A FF                  263 	.db #0xFF
   007B FF                  264 	.db #0xFF
   007C FF                  265 	.db #0xFF
   007D FF                  266 	.db #0xFF
   007E FF                  267 	.db #0xFF
   007F FF                  268 	.db #0xFF
   0080 FF                  269 	.db #0xFF
   0081 FF                  270 	.db #0xFF
   0082 00                  271 	.db #0x00
   0083 FF                  272 	.db #0xFF
   0084 00                  273 	.db #0x00
   0085 FF                  274 	.db #0xFF
   0086 00                  275 	.db #0x00
   0087 FF                  276 	.db #0xFF
   0088 00                  277 	.db #0x00
   0089 FF                  278 	.db #0xFF
   008A 00                  279 	.db #0x00
   008B FF                  280 	.db #0xFF
   008C 00                  281 	.db #0x00
   008D FF                  282 	.db #0xFF
   008E 00                  283 	.db #0x00
   008F FF                  284 	.db #0xFF
   0090 00                  285 	.db #0x00
   0091 00                  286 	.db #0x00
   0092 FF                  287 	.db #0xFF
   0093 00                  288 	.db #0x00
   0094 FF                  289 	.db #0xFF
   0095 00                  290 	.db #0x00
   0096 FF                  291 	.db #0xFF
   0097 00                  292 	.db #0x00
   0098 FF                  293 	.db #0xFF
   0099 00                  294 	.db #0x00
   009A FF                  295 	.db #0xFF
   009B 00                  296 	.db #0x00
   009C FF                  297 	.db #0xFF
   009D 00                  298 	.db #0x00
   009E FF                  299 	.db #0xFF
   009F 00                  300 	.db #0x00
   00A0 FF                  301 	.db #0xFF
   00A1 00                  302 	.db #0x00
   00A2 00                  303 	.db #0x00
   00A3 00                  304 	.db #0x00
   00A4 00                  305 	.db #0x00
   00A5 00                  306 	.db #0x00
   00A6 00                  307 	.db #0x00
   00A7 00                  308 	.db #0x00
   00A8 00                  309 	.db #0x00
   00A9 00                  310 	.db #0x00
   00AA 00                  311 	.db #0x00
   00AB 00                  312 	.db #0x00
   00AC 00                  313 	.db #0x00
   00AD 00                  314 	.db #0x00
   00AE 00                  315 	.db #0x00
   00AF 00                  316 	.db #0x00
   00B0 00                  317 	.db #0x00
   00B1                     318 _earth_data:
   00B1 07                  319 	.db #0x07
   00B2 07                  320 	.db #0x07
   00B3 18                  321 	.db #0x18
   00B4 1F                  322 	.db #0x1F
   00B5 32                  323 	.db #0x32
   00B6 2D                  324 	.db #0x2D
   00B7 71                  325 	.db #0x71
   00B8 4E                  326 	.db #0x4E
   00B9 70                  327 	.db #0x70
   00BA 4F                  328 	.db #0x4F
   00BB F8                  329 	.db #0xF8
   00BC 87                  330 	.db #0x87
   00BD F8                  331 	.db #0xF8
   00BE 87                  332 	.db #0x87
   00BF F8                  333 	.db #0xF8
   00C0 87                  334 	.db #0x87
   00C1 FC                  335 	.db #0xFC
   00C2 83                  336 	.db #0x83
   00C3 FE                  337 	.db #0xFE
   00C4 81                  338 	.db #0x81
   00C5 7F                  339 	.db #0x7F
   00C6 40                  340 	.db #0x40
   00C7 7F                  341 	.db #0x7F
   00C8 40                  342 	.db #0x40
   00C9 3F                  343 	.db #0x3F
   00CA 20                  344 	.db #0x20
   00CB 1F                  345 	.db #0x1F
   00CC 18                  346 	.db #0x18
   00CD 07                  347 	.db #0x07
   00CE 07                  348 	.db #0x07
   00CF 00                  349 	.db #0x00
   00D0 00                  350 	.db #0x00
   00D1 C0                  351 	.db #0xC0
   00D2 C0                  352 	.db #0xC0
   00D3 F0                  353 	.db #0xF0
   00D4 30                  354 	.db #0x30
   00D5 78                  355 	.db #0x78
   00D6 88                  356 	.db #0x88
   00D7 3C                  357 	.db #0x3C
   00D8 C4                  358 	.db #0xC4
   00D9 5C                  359 	.db #0x5C
   00DA A4                  360 	.db #0xA4
   00DB 9E                  361 	.db #0x9E
   00DC 62                  362 	.db #0x62
   00DD 3E                  363 	.db #0x3E
   00DE C2                  364 	.db #0xC2
   00DF 3E                  365 	.db #0x3E
   00E0 C2                  366 	.db #0xC2
   00E1 5E                  367 	.db #0x5E
   00E2 A2                  368 	.db #0xA2
   00E3 7E                  369 	.db #0x7E
   00E4 82                  370 	.db #0x82
   00E5 0C                  371 	.db #0x0C
   00E6 F4                  372 	.db #0xF4
   00E7 0C                  373 	.db #0x0C
   00E8 F4                  374 	.db #0xF4
   00E9 98                  375 	.db #0x98
   00EA 68                  376 	.db #0x68
   00EB B0                  377 	.db #0xB0
   00EC 70                  378 	.db #0x70
   00ED C0                  379 	.db #0xC0
   00EE C0                  380 	.db #0xC0
   00EF 00                  381 	.db #0x00
   00F0 00                  382 	.db #0x00
   00F1 07                  383 	.db #0x07
   00F2 07                  384 	.db #0x07
   00F3 1F                  385 	.db #0x1F
   00F4 18                  386 	.db #0x18
   00F5 2F                  387 	.db #0x2F
   00F6 30                  388 	.db #0x30
   00F7 4F                  389 	.db #0x4F
   00F8 70                  390 	.db #0x70
   00F9 6F                  391 	.db #0x6F
   00FA 50                  392 	.db #0x50
   00FB 9F                  393 	.db #0x9F
   00FC E0                  394 	.db #0xE0
   00FD 9F                  395 	.db #0x9F
   00FE E0                  396 	.db #0xE0
   00FF BF                  397 	.db #0xBF
   0100 C0                  398 	.db #0xC0
   0101 FF                  399 	.db #0xFF
   0102 80                  400 	.db #0x80
   0103 B7                  401 	.db #0xB7
   0104 C8                  402 	.db #0xC8
   0105 63                  403 	.db #0x63
   0106 5C                  404 	.db #0x5C
   0107 43                  405 	.db #0x43
   0108 7C                  406 	.db #0x7C
   0109 3F                  407 	.db #0x3F
   010A 20                  408 	.db #0x20
   010B 1F                  409 	.db #0x1F
   010C 18                  410 	.db #0x18
   010D 07                  411 	.db #0x07
   010E 07                  412 	.db #0x07
   010F 00                  413 	.db #0x00
   0110 00                  414 	.db #0x00
   0111 C0                  415 	.db #0xC0
   0112 C0                  416 	.db #0xC0
   0113 B0                  417 	.db #0xB0
   0114 70                  418 	.db #0x70
   0115 18                  419 	.db #0x18
   0116 E8                  420 	.db #0xE8
   0117 0C                  421 	.db #0x0C
   0118 F4                  422 	.db #0xF4
   0119 0C                  423 	.db #0x0C
   011A F4                  424 	.db #0xF4
   011B 82                  425 	.db #0x82
   011C 7E                  426 	.db #0x7E
   011D 82                  427 	.db #0x82
   011E 7E                  428 	.db #0x7E
   011F 86                  429 	.db #0x86
   0120 7A                  430 	.db #0x7A
   0121 C6                  431 	.db #0xC6
   0122 3A                  432 	.db #0x3A
   0123 E6                  433 	.db #0xE6
   0124 1A                  434 	.db #0x1A
   0125 F4                  435 	.db #0xF4
   0126 0C                  436 	.db #0x0C
   0127 FC                  437 	.db #0xFC
   0128 04                  438 	.db #0x04
   0129 F8                  439 	.db #0xF8
   012A 08                  440 	.db #0x08
   012B F0                  441 	.db #0xF0
   012C 30                  442 	.db #0x30
   012D C0                  443 	.db #0xC0
   012E C0                  444 	.db #0xC0
   012F 00                  445 	.db #0x00
   0130 00                  446 	.db #0x00
   0131 07                  447 	.db #0x07
   0132 07                  448 	.db #0x07
   0133 1E                  449 	.db #0x1E
   0134 19                  450 	.db #0x19
   0135 20                  451 	.db #0x20
   0136 3F                  452 	.db #0x3F
   0137 40                  453 	.db #0x40
   0138 7F                  454 	.db #0x7F
   0139 42                  455 	.db #0x42
   013A 7D                  456 	.db #0x7D
   013B 81                  457 	.db #0x81
   013C FE                  458 	.db #0xFE
   013D 81                  459 	.db #0x81
   013E FE                  460 	.db #0xFE
   013F 83                  461 	.db #0x83
   0140 FC                  462 	.db #0xFC
   0141 D7                  463 	.db #0xD7
   0142 A8                  464 	.db #0xA8
   0143 BB                  465 	.db #0xBB
   0144 C4                  466 	.db #0xC4
   0145 6E                  467 	.db #0x6E
   0146 51                  468 	.db #0x51
   0147 7C                  469 	.db #0x7C
   0148 43                  470 	.db #0x43
   0149 3F                  471 	.db #0x3F
   014A 20                  472 	.db #0x20
   014B 1F                  473 	.db #0x1F
   014C 18                  474 	.db #0x18
   014D 07                  475 	.db #0x07
   014E 07                  476 	.db #0x07
   014F 00                  477 	.db #0x00
   0150 00                  478 	.db #0x00
   0151 C0                  479 	.db #0xC0
   0152 C0                  480 	.db #0xC0
   0153 70                  481 	.db #0x70
   0154 B0                  482 	.db #0xB0
   0155 E8                  483 	.db #0xE8
   0156 18                  484 	.db #0x18
   0157 F4                  485 	.db #0xF4
   0158 0C                  486 	.db #0x0C
   0159 F4                  487 	.db #0xF4
   015A 0C                  488 	.db #0x0C
   015B FE                  489 	.db #0xFE
   015C 02                  490 	.db #0x02
   015D FE                  491 	.db #0xFE
   015E 02                  492 	.db #0x02
   015F FE                  493 	.db #0xFE
   0160 02                  494 	.db #0x02
   0161 FE                  495 	.db #0xFE
   0162 02                  496 	.db #0x02
   0163 7E                  497 	.db #0x7E
   0164 82                  498 	.db #0x82
   0165 3C                  499 	.db #0x3C
   0166 C4                  500 	.db #0xC4
   0167 3C                  501 	.db #0x3C
   0168 C4                  502 	.db #0xC4
   0169 F8                  503 	.db #0xF8
   016A 08                  504 	.db #0x08
   016B F0                  505 	.db #0xF0
   016C 30                  506 	.db #0x30
   016D C0                  507 	.db #0xC0
   016E C0                  508 	.db #0xC0
   016F 00                  509 	.db #0x00
   0170 00                  510 	.db #0x00
   0171 07                  511 	.db #0x07
   0172 07                  512 	.db #0x07
   0173 1B                  513 	.db #0x1B
   0174 1C                  514 	.db #0x1C
   0175 20                  515 	.db #0x20
   0176 3F                  516 	.db #0x3F
   0177 40                  517 	.db #0x40
   0178 7F                  518 	.db #0x7F
   0179 40                  519 	.db #0x40
   017A 7F                  520 	.db #0x7F
   017B E0                  521 	.db #0xE0
   017C 9F                  522 	.db #0x9F
   017D 90                  523 	.db #0x90
   017E EF                  524 	.db #0xEF
   017F 89                  525 	.db #0x89
   0180 F6                  526 	.db #0xF6
   0181 8D                  527 	.db #0x8D
   0182 F2                  528 	.db #0xF2
   0183 9F                  529 	.db #0x9F
   0184 E0                  530 	.db #0xE0
   0185 5E                  531 	.db #0x5E
   0186 61                  532 	.db #0x61
   0187 6F                  533 	.db #0x6F
   0188 50                  534 	.db #0x50
   0189 3F                  535 	.db #0x3F
   018A 20                  536 	.db #0x20
   018B 1F                  537 	.db #0x1F
   018C 18                  538 	.db #0x18
   018D 07                  539 	.db #0x07
   018E 07                  540 	.db #0x07
   018F 00                  541 	.db #0x00
   0190 00                  542 	.db #0x00
   0191 C0                  543 	.db #0xC0
   0192 C0                  544 	.db #0xC0
   0193 B0                  545 	.db #0xB0
   0194 70                  546 	.db #0x70
   0195 28                  547 	.db #0x28
   0196 D8                  548 	.db #0xD8
   0197 04                  549 	.db #0x04
   0198 FC                  550 	.db #0xFC
   0199 2C                  551 	.db #0x2C
   019A D4                  552 	.db #0xD4
   019B 1E                  553 	.db #0x1E
   019C E2                  554 	.db #0xE2
   019D 1E                  555 	.db #0x1E
   019E E2                  556 	.db #0xE2
   019F 3E                  557 	.db #0x3E
   01A0 C2                  558 	.db #0xC2
   01A1 7E                  559 	.db #0x7E
   01A2 82                  560 	.db #0x82
   01A3 B6                  561 	.db #0xB6
   01A4 4A                  562 	.db #0x4A
   01A5 E4                  563 	.db #0xE4
   01A6 1C                  564 	.db #0x1C
   01A7 C4                  565 	.db #0xC4
   01A8 3C                  566 	.db #0x3C
   01A9 F8                  567 	.db #0xF8
   01AA 08                  568 	.db #0x08
   01AB F0                  569 	.db #0xF0
   01AC 30                  570 	.db #0x30
   01AD C0                  571 	.db #0xC0
   01AE C0                  572 	.db #0xC0
   01AF 00                  573 	.db #0x00
   01B0 00                  574 	.db #0x00
   01B1 07                  575 	.db #0x07
   01B2 07                  576 	.db #0x07
   01B3 18                  577 	.db #0x18
   01B4 1F                  578 	.db #0x1F
   01B5 20                  579 	.db #0x20
   01B6 3F                  580 	.db #0x3F
   01B7 40                  581 	.db #0x40
   01B8 7F                  582 	.db #0x7F
   01B9 40                  583 	.db #0x40
   01BA 7F                  584 	.db #0x7F
   01BB EE                  585 	.db #0xEE
   01BC 91                  586 	.db #0x91
   01BD F1                  587 	.db #0xF1
   01BE 8E                  588 	.db #0x8E
   01BF E0                  589 	.db #0xE0
   01C0 9F                  590 	.db #0x9F
   01C1 E0                  591 	.db #0xE0
   01C2 9F                  592 	.db #0x9F
   01C3 F1                  593 	.db #0xF1
   01C4 8E                  594 	.db #0x8E
   01C5 71                  595 	.db #0x71
   01C6 4E                  596 	.db #0x4E
   01C7 72                  597 	.db #0x72
   01C8 4D                  598 	.db #0x4D
   01C9 3F                  599 	.db #0x3F
   01CA 20                  600 	.db #0x20
   01CB 1F                  601 	.db #0x1F
   01CC 18                  602 	.db #0x18
   01CD 07                  603 	.db #0x07
   01CE 07                  604 	.db #0x07
   01CF 00                  605 	.db #0x00
   01D0 00                  606 	.db #0x00
   01D1 C0                  607 	.db #0xC0
   01D2 C0                  608 	.db #0xC0
   01D3 F0                  609 	.db #0xF0
   01D4 30                  610 	.db #0x30
   01D5 08                  611 	.db #0x08
   01D6 F8                  612 	.db #0xF8
   01D7 04                  613 	.db #0x04
   01D8 FC                  614 	.db #0xFC
   01D9 04                  615 	.db #0x04
   01DA FC                  616 	.db #0xFC
   01DB 02                  617 	.db #0x02
   01DC FE                  618 	.db #0xFE
   01DD 02                  619 	.db #0x02
   01DE FE                  620 	.db #0xFE
   01DF 92                  621 	.db #0x92
   01E0 6E                  622 	.db #0x6E
   01E1 D6                  623 	.db #0xD6
   01E2 2A                  624 	.db #0x2A
   01E3 FE                  625 	.db #0xFE
   01E4 02                  626 	.db #0x02
   01E5 EC                  627 	.db #0xEC
   01E6 14                  628 	.db #0x14
   01E7 FC                  629 	.db #0xFC
   01E8 04                  630 	.db #0x04
   01E9 F8                  631 	.db #0xF8
   01EA 08                  632 	.db #0x08
   01EB F0                  633 	.db #0xF0
   01EC 30                  634 	.db #0x30
   01ED C0                  635 	.db #0xC0
   01EE C0                  636 	.db #0xC0
   01EF 00                  637 	.db #0x00
   01F0 00                  638 	.db #0x00
   01F1 07                  639 	.db #0x07
   01F2 07                  640 	.db #0x07
   01F3 1D                  641 	.db #0x1D
   01F4 1A                  642 	.db #0x1A
   01F5 36                  643 	.db #0x36
   01F6 29                  644 	.db #0x29
   01F7 5C                  645 	.db #0x5C
   01F8 63                  646 	.db #0x63
   01F9 6C                  647 	.db #0x6C
   01FA 53                  648 	.db #0x53
   01FB CE                  649 	.db #0xCE
   01FC B1                  650 	.db #0xB1
   01FD 9F                  651 	.db #0x9F
   01FE E0                  652 	.db #0xE0
   01FF 9E                  653 	.db #0x9E
   0200 E1                  654 	.db #0xE1
   0201 AE                  655 	.db #0xAE
   0202 D1                  656 	.db #0xD1
   0203 BF                  657 	.db #0xBF
   0204 C0                  658 	.db #0xC0
   0205 47                  659 	.db #0x47
   0206 78                  660 	.db #0x78
   0207 47                  661 	.db #0x47
   0208 78                  662 	.db #0x78
   0209 2F                  663 	.db #0x2F
   020A 30                  664 	.db #0x30
   020B 1F                  665 	.db #0x1F
   020C 18                  666 	.db #0x18
   020D 07                  667 	.db #0x07
   020E 07                  668 	.db #0x07
   020F 00                  669 	.db #0x00
   0210 00                  670 	.db #0x00
   0211 C0                  671 	.db #0xC0
   0212 C0                  672 	.db #0xC0
   0213 70                  673 	.db #0x70
   0214 B0                  674 	.db #0xB0
   0215 08                  675 	.db #0x08
   0216 F8                  676 	.db #0xF8
   0217 04                  677 	.db #0x04
   0218 FC                  678 	.db #0xFC
   0219 04                  679 	.db #0x04
   021A FC                  680 	.db #0xFC
   021B E2                  681 	.db #0xE2
   021C 1E                  682 	.db #0x1E
   021D 32                  683 	.db #0x32
   021E CE                  684 	.db #0xCE
   021F 0E                  685 	.db #0x0E
   0220 F2                  686 	.db #0xF2
   0221 0E                  687 	.db #0x0E
   0222 F2                  688 	.db #0xF2
   0223 1E                  689 	.db #0x1E
   0224 E2                  690 	.db #0xE2
   0225 1C                  691 	.db #0x1C
   0226 E4                  692 	.db #0xE4
   0227 2C                  693 	.db #0x2C
   0228 D4                  694 	.db #0xD4
   0229 F8                  695 	.db #0xF8
   022A 08                  696 	.db #0x08
   022B F0                  697 	.db #0xF0
   022C 30                  698 	.db #0x30
   022D C0                  699 	.db #0xC0
   022E C0                  700 	.db #0xC0
   022F 00                  701 	.db #0x00
   0230 00                  702 	.db #0x00
   0231 07                  703 	.db #0x07
   0232 07                  704 	.db #0x07
   0233 1E                  705 	.db #0x1E
   0234 19                  706 	.db #0x19
   0235 33                  707 	.db #0x33
   0236 2C                  708 	.db #0x2C
   0237 49                  709 	.db #0x49
   0238 76                  710 	.db #0x76
   0239 42                  711 	.db #0x42
   023A 7D                  712 	.db #0x7D
   023B C4                  713 	.db #0xC4
   023C BB                  714 	.db #0xBB
   023D C1                  715 	.db #0xC1
   023E BE                  716 	.db #0xBE
   023F C1                  717 	.db #0xC1
   0240 BE                  718 	.db #0xBE
   0241 E2                  719 	.db #0xE2
   0242 9D                  720 	.db #0x9D
   0243 F3                  721 	.db #0xF3
   0244 8C                  722 	.db #0x8C
   0245 78                  723 	.db #0x78
   0246 47                  724 	.db #0x47
   0247 78                  725 	.db #0x78
   0248 47                  726 	.db #0x47
   0249 3C                  727 	.db #0x3C
   024A 23                  728 	.db #0x23
   024B 1C                  729 	.db #0x1C
   024C 1B                  730 	.db #0x1B
   024D 07                  731 	.db #0x07
   024E 07                  732 	.db #0x07
   024F 00                  733 	.db #0x00
   0250 00                  734 	.db #0x00
   0251 C0                  735 	.db #0xC0
   0252 C0                  736 	.db #0xC0
   0253 70                  737 	.db #0x70
   0254 B0                  738 	.db #0xB0
   0255 68                  739 	.db #0x68
   0256 98                  740 	.db #0x98
   0257 C4                  741 	.db #0xC4
   0258 3C                  742 	.db #0x3C
   0259 C4                  743 	.db #0xC4
   025A 3C                  744 	.db #0x3C
   025B EE                  745 	.db #0xEE
   025C 12                  746 	.db #0x12
   025D F2                  747 	.db #0xF2
   025E 0E                  748 	.db #0x0E
   025F E2                  749 	.db #0xE2
   0260 1E                  750 	.db #0x1E
   0261 E2                  751 	.db #0xE2
   0262 1E                  752 	.db #0x1E
   0263 F2                  753 	.db #0xF2
   0264 0E                  754 	.db #0x0E
   0265 7C                  755 	.db #0x7C
   0266 84                  756 	.db #0x84
   0267 7C                  757 	.db #0x7C
   0268 84                  758 	.db #0x84
   0269 F8                  759 	.db #0xF8
   026A 08                  760 	.db #0x08
   026B F0                  761 	.db #0xF0
   026C 30                  762 	.db #0x30
   026D C0                  763 	.db #0xC0
   026E C0                  764 	.db #0xC0
   026F 00                  765 	.db #0x00
   0270 00                  766 	.db #0x00
   0271                     767 _frame_data:
   0271 FF                  768 	.db #0xFF
   0272 00                  769 	.db #0x00
   0273 80                  770 	.db #0x80
   0274 7F                  771 	.db #0x7F
   0275 80                  772 	.db #0x80
   0276 7F                  773 	.db #0x7F
   0277 80                  774 	.db #0x80
   0278 7F                  775 	.db #0x7F
   0279 80                  776 	.db #0x80
   027A 7F                  777 	.db #0x7F
   027B 80                  778 	.db #0x80
   027C 7F                  779 	.db #0x7F
   027D 80                  780 	.db #0x80
   027E 7F                  781 	.db #0x7F
   027F 80                  782 	.db #0x80
   0280 7F                  783 	.db #0x7F
   0281 FF                  784 	.db #0xFF
   0282 00                  785 	.db #0x00
   0283 01                  786 	.db #0x01
   0284 FE                  787 	.db #0xFE
   0285 03                  788 	.db #0x03
   0286 FC                  789 	.db #0xFC
   0287 07                  790 	.db #0x07
   0288 F8                  791 	.db #0xF8
   0289 0F                  792 	.db #0x0F
   028A F0                  793 	.db #0xF0
   028B 1F                  794 	.db #0x1F
   028C E0                  795 	.db #0xE0
   028D 3F                  796 	.db #0x3F
   028E C0                  797 	.db #0xC0
   028F 7F                  798 	.db #0x7F
   0290 80                  799 	.db #0x80
   0291 FF                  800 	.db #0xFF
   0292 00                  801 	.db #0x00
   0293 FE                  802 	.db #0xFE
   0294 01                  803 	.db #0x01
   0295 FC                  804 	.db #0xFC
   0296 03                  805 	.db #0x03
   0297 F8                  806 	.db #0xF8
   0298 07                  807 	.db #0x07
   0299 F0                  808 	.db #0xF0
   029A 0F                  809 	.db #0x0F
   029B E0                  810 	.db #0xE0
   029C 1F                  811 	.db #0x1F
   029D C0                  812 	.db #0xC0
   029E 3F                  813 	.db #0x3F
   029F 80                  814 	.db #0x80
   02A0 7F                  815 	.db #0x7F
   02A1 FF                  816 	.db #0xFF
   02A2 00                  817 	.db #0x00
   02A3 00                  818 	.db #0x00
   02A4 FF                  819 	.db #0xFF
   02A5 00                  820 	.db #0x00
   02A6 FF                  821 	.db #0xFF
   02A7 00                  822 	.db #0x00
   02A8 FF                  823 	.db #0xFF
   02A9 00                  824 	.db #0x00
   02AA FF                  825 	.db #0xFF
   02AB 00                  826 	.db #0x00
   02AC FF                  827 	.db #0xFF
   02AD 00                  828 	.db #0x00
   02AE FF                  829 	.db #0xFF
   02AF 00                  830 	.db #0x00
   02B0 FF                  831 	.db #0xFF
   02B1 FF                  832 	.db #0xFF
   02B2 00                  833 	.db #0x00
   02B3 FF                  834 	.db #0xFF
   02B4 01                  835 	.db #0x01
   02B5 FD                  836 	.db #0xFD
   02B6 03                  837 	.db #0x03
   02B7 F9                  838 	.db #0xF9
   02B8 07                  839 	.db #0x07
   02B9 F1                  840 	.db #0xF1
   02BA 0F                  841 	.db #0x0F
   02BB E1                  842 	.db #0xE1
   02BC 1F                  843 	.db #0x1F
   02BD C1                  844 	.db #0xC1
   02BE 3F                  845 	.db #0x3F
   02BF 81                  846 	.db #0x81
   02C0 7F                  847 	.db #0x7F
   02C1 80                  848 	.db #0x80
   02C2 7F                  849 	.db #0x7F
   02C3 81                  850 	.db #0x81
   02C4 7E                  851 	.db #0x7E
   02C5 83                  852 	.db #0x83
   02C6 7C                  853 	.db #0x7C
   02C7 87                  854 	.db #0x87
   02C8 78                  855 	.db #0x78
   02C9 8F                  856 	.db #0x8F
   02CA 70                  857 	.db #0x70
   02CB 9F                  858 	.db #0x9F
   02CC 60                  859 	.db #0x60
   02CD BF                  860 	.db #0xBF
   02CE 40                  861 	.db #0x40
   02CF FF                  862 	.db #0xFF
   02D0 00                  863 	.db #0x00
   02D1 FF                  864 	.db #0xFF
   02D2 70                  865 	.db #0x70
   02D3 FF                  866 	.db #0xFF
   02D4 98                  867 	.db #0x98
   02D5 EF                  868 	.db #0xEF
   02D6 B8                  869 	.db #0xB8
   02D7 CF                  870 	.db #0xCF
   02D8 F8                  871 	.db #0xF8
   02D9 FF                  872 	.db #0xFF
   02DA 70                  873 	.db #0x70
   02DB FF                  874 	.db #0xFF
   02DC 00                  875 	.db #0x00
   02DD FF                  876 	.db #0xFF
   02DE 00                  877 	.db #0x00
   02DF FF                  878 	.db #0xFF
   02E0 01                  879 	.db #0x01
   02E1 FF                  880 	.db #0xFF
   02E2 00                  881 	.db #0x00
   02E3 FE                  882 	.db #0xFE
   02E4 01                  883 	.db #0x01
   02E5 FC                  884 	.db #0xFC
   02E6 03                  885 	.db #0x03
   02E7 F8                  886 	.db #0xF8
   02E8 07                  887 	.db #0x07
   02E9 F0                  888 	.db #0xF0
   02EA 0F                  889 	.db #0x0F
   02EB E0                  890 	.db #0xE0
   02EC 1F                  891 	.db #0x1F
   02ED C0                  892 	.db #0xC0
   02EE 3F                  893 	.db #0x3F
   02EF FF                  894 	.db #0xFF
   02F0 FF                  895 	.db #0xFF
   02F1 00                  896 	.db #0x00
   02F2 FF                  897 	.db #0xFF
   02F3 00                  898 	.db #0x00
   02F4 FF                  899 	.db #0xFF
   02F5 00                  900 	.db #0x00
   02F6 FF                  901 	.db #0xFF
   02F7 00                  902 	.db #0x00
   02F8 FF                  903 	.db #0xFF
   02F9 00                  904 	.db #0x00
   02FA FF                  905 	.db #0xFF
   02FB 00                  906 	.db #0x00
   02FC FF                  907 	.db #0xFF
   02FD 00                  908 	.db #0x00
   02FE FF                  909 	.db #0xFF
   02FF FF                  910 	.db #0xFF
   0300 FF                  911 	.db #0xFF
   0301 00                  912 	.db #0x00
   0302 FF                  913 	.db #0xFF
   0303 01                  914 	.db #0x01
   0304 FE                  915 	.db #0xFE
   0305 03                  916 	.db #0x03
   0306 FC                  917 	.db #0xFC
   0307 07                  918 	.db #0x07
   0308 F8                  919 	.db #0xF8
   0309 0F                  920 	.db #0x0F
   030A F0                  921 	.db #0xF0
   030B 1F                  922 	.db #0x1F
   030C E0                  923 	.db #0xE0
   030D 3F                  924 	.db #0x3F
   030E C0                  925 	.db #0xC0
   030F FF                  926 	.db #0xFF
   0310 FF                  927 	.db #0xFF
   0311 FF                  928 	.db #0xFF
   0312 00                  929 	.db #0x00
   0313 FF                  930 	.db #0xFF
   0314 00                  931 	.db #0x00
   0315 FF                  932 	.db #0xFF
   0316 00                  933 	.db #0x00
   0317 FF                  934 	.db #0xFF
   0318 00                  935 	.db #0x00
   0319 FF                  936 	.db #0xFF
   031A 00                  937 	.db #0x00
   031B FF                  938 	.db #0xFF
   031C 00                  939 	.db #0x00
   031D FF                  940 	.db #0xFF
   031E 00                  941 	.db #0x00
   031F FF                  942 	.db #0xFF
   0320 FF                  943 	.db #0xFF
   0321 FF                  944 	.db #0xFF
   0322 0E                  945 	.db #0x0E
   0323 FF                  946 	.db #0xFF
   0324 13                  947 	.db #0x13
   0325 FD                  948 	.db #0xFD
   0326 17                  949 	.db #0x17
   0327 F9                  950 	.db #0xF9
   0328 1F                  951 	.db #0x1F
   0329 FE                  952 	.db #0xFE
   032A 0F                  953 	.db #0x0F
   032B E0                  954 	.db #0xE0
   032C 1F                  955 	.db #0x1F
   032D C0                  956 	.db #0xC0
   032E 3F                  957 	.db #0x3F
   032F 80                  958 	.db #0x80
   0330 FF                  959 	.db #0xFF
   0331 01                  960 	.db #0x01
   0332 FF                  961 	.db #0xFF
   0333 01                  962 	.db #0x01
   0334 FF                  963 	.db #0xFF
   0335 01                  964 	.db #0x01
   0336 FF                  965 	.db #0xFF
   0337 01                  966 	.db #0x01
   0338 FF                  967 	.db #0xFF
   0339 01                  968 	.db #0x01
   033A FF                  969 	.db #0xFF
   033B 01                  970 	.db #0x01
   033C FF                  971 	.db #0xFF
   033D 01                  972 	.db #0x01
   033E FF                  973 	.db #0xFF
   033F 01                  974 	.db #0x01
   0340 FF                  975 	.db #0xFF
   0341 FF                  976 	.db #0xFF
   0342 01                  977 	.db #0x01
   0343 FF                  978 	.db #0xFF
   0344 01                  979 	.db #0x01
   0345 FD                  980 	.db #0xFD
   0346 03                  981 	.db #0x03
   0347 F9                  982 	.db #0xF9
   0348 07                  983 	.db #0x07
   0349 F1                  984 	.db #0xF1
   034A 0F                  985 	.db #0x0F
   034B E1                  986 	.db #0xE1
   034C 1F                  987 	.db #0x1F
   034D C1                  988 	.db #0xC1
   034E 3F                  989 	.db #0x3F
   034F 81                  990 	.db #0x81
   0350 7F                  991 	.db #0x7F
   0351 80                  992 	.db #0x80
   0352 7F                  993 	.db #0x7F
   0353 80                  994 	.db #0x80
   0354 7F                  995 	.db #0x7F
   0355 80                  996 	.db #0x80
   0356 7F                  997 	.db #0x7F
   0357 80                  998 	.db #0x80
   0358 7F                  999 	.db #0x7F
   0359 80                 1000 	.db #0x80
   035A 7F                 1001 	.db #0x7F
   035B 80                 1002 	.db #0x80
   035C 7F                 1003 	.db #0x7F
   035D 80                 1004 	.db #0x80
   035E 7F                 1005 	.db #0x7F
   035F 80                 1006 	.db #0x80
   0360 7F                 1007 	.db #0x7F
   0361 01                 1008 	.db #0x01
   0362 FF                 1009 	.db #0xFF
   0363 01                 1010 	.db #0x01
   0364 FF                 1011 	.db #0xFF
   0365 03                 1012 	.db #0x03
   0366 FD                 1013 	.db #0xFD
   0367 07                 1014 	.db #0x07
   0368 F9                 1015 	.db #0xF9
   0369 0F                 1016 	.db #0x0F
   036A F1                 1017 	.db #0xF1
   036B 1F                 1018 	.db #0x1F
   036C E1                 1019 	.db #0xE1
   036D 3F                 1020 	.db #0x3F
   036E C1                 1021 	.db #0xC1
   036F 7F                 1022 	.db #0x7F
   0370 81                 1023 	.db #0x81
   0371 FF                 1024 	.db #0xFF
   0372 01                 1025 	.db #0x01
   0373 FF                 1026 	.db #0xFF
   0374 01                 1027 	.db #0x01
   0375 FF                 1028 	.db #0xFF
   0376 01                 1029 	.db #0x01
   0377 FF                 1030 	.db #0xFF
   0378 01                 1031 	.db #0x01
   0379 FF                 1032 	.db #0xFF
   037A 01                 1033 	.db #0x01
   037B FF                 1034 	.db #0xFF
   037C 01                 1035 	.db #0x01
   037D FF                 1036 	.db #0xFF
   037E 01                 1037 	.db #0x01
   037F FF                 1038 	.db #0xFF
   0380 01                 1039 	.db #0x01
   0381 01                 1040 	.db #0x01
   0382 FF                 1041 	.db #0xFF
   0383 01                 1042 	.db #0x01
   0384 FE                 1043 	.db #0xFE
   0385 03                 1044 	.db #0x03
   0386 FC                 1045 	.db #0xFC
   0387 77                 1046 	.db #0x77
   0388 F8                 1047 	.db #0xF8
   0389 FF                 1048 	.db #0xFF
   038A 98                 1049 	.db #0x98
   038B EF                 1050 	.db #0xEF
   038C B8                 1051 	.db #0xB8
   038D CF                 1052 	.db #0xCF
   038E F8                 1053 	.db #0xF8
   038F 7F                 1054 	.db #0x7F
   0390 F0                 1055 	.db #0xF0
   0391 FF                 1056 	.db #0xFF
   0392 00                 1057 	.db #0x00
   0393 FF                 1058 	.db #0xFF
   0394 00                 1059 	.db #0x00
   0395 FF                 1060 	.db #0xFF
   0396 00                 1061 	.db #0x00
   0397 FF                 1062 	.db #0xFF
   0398 0E                 1063 	.db #0x0E
   0399 FF                 1064 	.db #0xFF
   039A 13                 1065 	.db #0x13
   039B FD                 1066 	.db #0xFD
   039C 17                 1067 	.db #0x17
   039D F9                 1068 	.db #0xF9
   039E 1F                 1069 	.db #0x1F
   039F FF                 1070 	.db #0xFF
   03A0 0E                 1071 	.db #0x0E
   03A1 80                 1072 	.db #0x80
   03A2 7F                 1073 	.db #0x7F
   03A3 81                 1074 	.db #0x81
   03A4 7E                 1075 	.db #0x7E
   03A5 83                 1076 	.db #0x83
   03A6 7C                 1077 	.db #0x7C
   03A7 87                 1078 	.db #0x87
   03A8 78                 1079 	.db #0x78
   03A9 8F                 1080 	.db #0x8F
   03AA 70                 1081 	.db #0x70
   03AB 9F                 1082 	.db #0x9F
   03AC 60                 1083 	.db #0x60
   03AD BF                 1084 	.db #0xBF
   03AE 40                 1085 	.db #0x40
   03AF FF                 1086 	.db #0xFF
   03B0 7F                 1087 	.db #0x7F
   03B1 01                 1088 	.db #0x01
   03B2 FF                 1089 	.db #0xFF
   03B3 01                 1090 	.db #0x01
   03B4 FF                 1091 	.db #0xFF
   03B5 01                 1092 	.db #0x01
   03B6 FF                 1093 	.db #0xFF
   03B7 01                 1094 	.db #0x01
   03B8 FF                 1095 	.db #0xFF
   03B9 01                 1096 	.db #0x01
   03BA FF                 1097 	.db #0xFF
   03BB 01                 1098 	.db #0x01
   03BC FF                 1099 	.db #0xFF
   03BD 01                 1100 	.db #0x01
   03BE FF                 1101 	.db #0xFF
   03BF FF                 1102 	.db #0xFF
   03C0 FF                 1103 	.db #0xFF
   03C1 FF                 1104 	.db #0xFF
   03C2 00                 1105 	.db #0x00
   03C3 00                 1106 	.db #0x00
   03C4 FF                 1107 	.db #0xFF
   03C5 00                 1108 	.db #0x00
   03C6 FF                 1109 	.db #0xFF
   03C7 00                 1110 	.db #0x00
   03C8 FF                 1111 	.db #0xFF
   03C9 00                 1112 	.db #0x00
   03CA FF                 1113 	.db #0xFF
   03CB FF                 1114 	.db #0xFF
   03CC FF                 1115 	.db #0xFF
   03CD FF                 1116 	.db #0xFF
   03CE 00                 1117 	.db #0x00
   03CF 00                 1118 	.db #0x00
   03D0 FF                 1119 	.db #0xFF
   03D1 00                 1120 	.db #0x00
   03D2 FF                 1121 	.db #0xFF
   03D3 00                 1122 	.db #0x00
   03D4 FF                 1123 	.db #0xFF
   03D5 00                 1124 	.db #0x00
   03D6 FF                 1125 	.db #0xFF
   03D7 FF                 1126 	.db #0xFF
   03D8 FF                 1127 	.db #0xFF
   03D9 FF                 1128 	.db #0xFF
   03DA 00                 1129 	.db #0x00
   03DB 00                 1130 	.db #0x00
   03DC FF                 1131 	.db #0xFF
   03DD 00                 1132 	.db #0x00
   03DE FF                 1133 	.db #0xFF
   03DF 00                 1134 	.db #0x00
   03E0 FF                 1135 	.db #0xFF
   03E1 00                 1136 	.db #0x00
   03E2 FF                 1137 	.db #0xFF
   03E3 FF                 1138 	.db #0xFF
   03E4 FF                 1139 	.db #0xFF
   03E5 FF                 1140 	.db #0xFF
   03E6 00                 1141 	.db #0x00
   03E7 00                 1142 	.db #0x00
   03E8 FF                 1143 	.db #0xFF
   03E9 00                 1144 	.db #0x00
   03EA FF                 1145 	.db #0xFF
   03EB 00                 1146 	.db #0x00
   03EC FF                 1147 	.db #0xFF
   03ED 00                 1148 	.db #0x00
   03EE FF                 1149 	.db #0xFF
   03EF FF                 1150 	.db #0xFF
   03F0 FF                 1151 	.db #0xFF
   03F1 00                 1152 	.db #0x00
   03F2 FF                 1153 	.db #0xFF
   03F3 00                 1154 	.db #0x00
   03F4 FF                 1155 	.db #0xFF
   03F5 00                 1156 	.db #0x00
   03F6 FF                 1157 	.db #0xFF
   03F7 FF                 1158 	.db #0xFF
   03F8 FF                 1159 	.db #0xFF
   03F9 FF                 1160 	.db #0xFF
   03FA 00                 1161 	.db #0x00
   03FB 00                 1162 	.db #0x00
   03FC FF                 1163 	.db #0xFF
   03FD 00                 1164 	.db #0x00
   03FE FF                 1165 	.db #0xFF
   03FF 00                 1166 	.db #0x00
   0400 FF                 1167 	.db #0xFF
   0401 00                 1168 	.db #0x00
   0402 FF                 1169 	.db #0xFF
   0403 FF                 1170 	.db #0xFF
   0404 FF                 1171 	.db #0xFF
   0405 FF                 1172 	.db #0xFF
   0406 00                 1173 	.db #0x00
   0407 00                 1174 	.db #0x00
   0408 FF                 1175 	.db #0xFF
   0409 00                 1176 	.db #0x00
   040A FF                 1177 	.db #0xFF
   040B 00                 1178 	.db #0x00
   040C FF                 1179 	.db #0xFF
   040D 00                 1180 	.db #0x00
   040E FF                 1181 	.db #0xFF
   040F FF                 1182 	.db #0xFF
   0410 FF                 1183 	.db #0xFF
   0411 FF                 1184 	.db #0xFF
   0412 00                 1185 	.db #0x00
   0413 00                 1186 	.db #0x00
   0414 FF                 1187 	.db #0xFF
   0415 00                 1188 	.db #0x00
   0416 FF                 1189 	.db #0xFF
   0417 00                 1190 	.db #0x00
   0418 FF                 1191 	.db #0xFF
   0419 00                 1192 	.db #0x00
   041A FF                 1193 	.db #0xFF
   041B FF                 1194 	.db #0xFF
   041C FF                 1195 	.db #0xFF
   041D FF                 1196 	.db #0xFF
   041E 00                 1197 	.db #0x00
   041F 00                 1198 	.db #0x00
   0420 FF                 1199 	.db #0xFF
   0421 FF                 1200 	.db #0xFF
   0422 00                 1201 	.db #0x00
   0423 00                 1202 	.db #0x00
   0424 FF                 1203 	.db #0xFF
   0425 00                 1204 	.db #0x00
   0426 FF                 1205 	.db #0xFF
   0427 00                 1206 	.db #0x00
   0428 FF                 1207 	.db #0xFF
   0429 00                 1208 	.db #0x00
   042A FF                 1209 	.db #0xFF
   042B FF                 1210 	.db #0xFF
   042C FF                 1211 	.db #0xFF
   042D FF                 1212 	.db #0xFF
   042E FF                 1213 	.db #0xFF
   042F FF                 1214 	.db #0xFF
   0430 FF                 1215 	.db #0xFF
   0431 00                 1216 	.db #0x00
   0432 FF                 1217 	.db #0xFF
   0433 FF                 1218 	.db #0xFF
   0434 FF                 1219 	.db #0xFF
   0435 FF                 1220 	.db #0xFF
   0436 00                 1221 	.db #0x00
   0437 00                 1222 	.db #0x00
   0438 FF                 1223 	.db #0xFF
   0439 00                 1224 	.db #0x00
   043A FF                 1225 	.db #0xFF
   043B 00                 1226 	.db #0x00
   043C FF                 1227 	.db #0xFF
   043D 00                 1228 	.db #0x00
   043E FF                 1229 	.db #0xFF
   043F FF                 1230 	.db #0xFF
   0440 FF                 1231 	.db #0xFF
   0441 FF                 1232 	.db #0xFF
   0442 00                 1233 	.db #0x00
   0443 00                 1234 	.db #0x00
   0444 FF                 1235 	.db #0xFF
   0445 00                 1236 	.db #0x00
   0446 FF                 1237 	.db #0xFF
   0447 00                 1238 	.db #0x00
   0448 FF                 1239 	.db #0xFF
   0449 00                 1240 	.db #0x00
   044A FF                 1241 	.db #0xFF
   044B FF                 1242 	.db #0xFF
   044C FF                 1243 	.db #0xFF
   044D FF                 1244 	.db #0xFF
   044E 00                 1245 	.db #0x00
   044F 00                 1246 	.db #0x00
   0450 FF                 1247 	.db #0xFF
   0451 00                 1248 	.db #0x00
   0452 FF                 1249 	.db #0xFF
   0453 00                 1250 	.db #0x00
   0454 FF                 1251 	.db #0xFF
   0455 00                 1252 	.db #0x00
   0456 FF                 1253 	.db #0xFF
   0457 FF                 1254 	.db #0xFF
   0458 FF                 1255 	.db #0xFF
   0459 FF                 1256 	.db #0xFF
   045A 00                 1257 	.db #0x00
   045B 00                 1258 	.db #0x00
   045C FF                 1259 	.db #0xFF
   045D 00                 1260 	.db #0x00
   045E FF                 1261 	.db #0xFF
   045F 00                 1262 	.db #0x00
   0460 FF                 1263 	.db #0xFF
   0461 00                 1264 	.db #0x00
   0462 FF                 1265 	.db #0xFF
   0463 00                 1266 	.db #0x00
   0464 FF                 1267 	.db #0xFF
   0465 00                 1268 	.db #0x00
   0466 FF                 1269 	.db #0xFF
   0467 FF                 1270 	.db #0xFF
   0468 FF                 1271 	.db #0xFF
   0469 FF                 1272 	.db #0xFF
   046A FF                 1273 	.db #0xFF
   046B FF                 1274 	.db #0xFF
   046C FF                 1275 	.db #0xFF
   046D FF                 1276 	.db #0xFF
   046E FF                 1277 	.db #0xFF
   046F FF                 1278 	.db #0xFF
   0470 FF                 1279 	.db #0xFF
   0471 00                 1280 	.db #0x00
   0472 FF                 1281 	.db #0xFF
   0473 FF                 1282 	.db #0xFF
   0474 FF                 1283 	.db #0xFF
   0475 FF                 1284 	.db #0xFF
   0476 FF                 1285 	.db #0xFF
   0477 FF                 1286 	.db #0xFF
   0478 FF                 1287 	.db #0xFF
   0479 FF                 1288 	.db #0xFF
   047A FF                 1289 	.db #0xFF
   047B FF                 1290 	.db #0xFF
   047C FF                 1291 	.db #0xFF
   047D FF                 1292 	.db #0xFF
   047E FF                 1293 	.db #0xFF
   047F FF                 1294 	.db #0xFF
   0480 FF                 1295 	.db #0xFF
   0481                    1296 _bkg_data:
   0481 FF                 1297 	.db #0xFF
   0482 FF                 1298 	.db #0xFF
   0483 FF                 1299 	.db #0xFF
   0484 FF                 1300 	.db #0xFF
   0485 FF                 1301 	.db #0xFF
   0486 FF                 1302 	.db #0xFF
   0487 FF                 1303 	.db #0xFF
   0488 FF                 1304 	.db #0xFF
   0489 FF                 1305 	.db #0xFF
   048A FF                 1306 	.db #0xFF
   048B FF                 1307 	.db #0xFF
   048C EF                 1308 	.db #0xEF
   048D FF                 1309 	.db #0xFF
   048E FF                 1310 	.db #0xFF
   048F FF                 1311 	.db #0xFF
   0490 FF                 1312 	.db #0xFF
   0491 FF                 1313 	.db #0xFF
   0492 FF                 1314 	.db #0xFF
   0493 FF                 1315 	.db #0xFF
   0494 FF                 1316 	.db #0xFF
   0495 FF                 1317 	.db #0xFF
   0496 FF                 1318 	.db #0xFF
   0497 FF                 1319 	.db #0xFF
   0498 FF                 1320 	.db #0xFF
   0499 FF                 1321 	.db #0xFF
   049A FF                 1322 	.db #0xFF
   049B FF                 1323 	.db #0xFF
   049C DF                 1324 	.db #0xDF
   049D FF                 1325 	.db #0xFF
   049E FF                 1326 	.db #0xFF
   049F FF                 1327 	.db #0xFF
   04A0 FF                 1328 	.db #0xFF
   04A1 FF                 1329 	.db #0xFF
   04A2 FF                 1330 	.db #0xFF
   04A3 FF                 1331 	.db #0xFF
   04A4 FB                 1332 	.db #0xFB
   04A5 FF                 1333 	.db #0xFF
   04A6 FF                 1334 	.db #0xFF
   04A7 FF                 1335 	.db #0xFF
   04A8 FF                 1336 	.db #0xFF
   04A9 FF                 1337 	.db #0xFF
   04AA FF                 1338 	.db #0xFF
   04AB FF                 1339 	.db #0xFF
   04AC FF                 1340 	.db #0xFF
   04AD FF                 1341 	.db #0xFF
   04AE FF                 1342 	.db #0xFF
   04AF FF                 1343 	.db #0xFF
   04B0 FF                 1344 	.db #0xFF
   04B1 FF                 1345 	.db #0xFF
   04B2 FF                 1346 	.db #0xFF
   04B3 FF                 1347 	.db #0xFF
   04B4 FF                 1348 	.db #0xFF
   04B5 FF                 1349 	.db #0xFF
   04B6 FF                 1350 	.db #0xFF
   04B7 FF                 1351 	.db #0xFF
   04B8 FF                 1352 	.db #0xFF
   04B9 FF                 1353 	.db #0xFF
   04BA FF                 1354 	.db #0xFF
   04BB FF                 1355 	.db #0xFF
   04BC FF                 1356 	.db #0xFF
   04BD F7                 1357 	.db #0xF7
   04BE F7                 1358 	.db #0xF7
   04BF FF                 1359 	.db #0xFF
   04C0 FF                 1360 	.db #0xFF
   04C1 FF                 1361 	.db #0xFF
   04C2 FF                 1362 	.db #0xFF
   04C3 FF                 1363 	.db #0xFF
   04C4 FF                 1364 	.db #0xFF
   04C5 FF                 1365 	.db #0xFF
   04C6 FF                 1366 	.db #0xFF
   04C7 FF                 1367 	.db #0xFF
   04C8 FF                 1368 	.db #0xFF
   04C9 FF                 1369 	.db #0xFF
   04CA DF                 1370 	.db #0xDF
   04CB FF                 1371 	.db #0xFF
   04CC FF                 1372 	.db #0xFF
   04CD FF                 1373 	.db #0xFF
   04CE FF                 1374 	.db #0xFF
   04CF FF                 1375 	.db #0xFF
   04D0 FF                 1376 	.db #0xFF
   04D1 FF                 1377 	.db #0xFF
   04D2 FF                 1378 	.db #0xFF
   04D3 FF                 1379 	.db #0xFF
   04D4 FF                 1380 	.db #0xFF
   04D5 FF                 1381 	.db #0xFF
   04D6 FF                 1382 	.db #0xFF
   04D7 FF                 1383 	.db #0xFF
   04D8 FF                 1384 	.db #0xFF
   04D9 FF                 1385 	.db #0xFF
   04DA FF                 1386 	.db #0xFF
   04DB FF                 1387 	.db #0xFF
   04DC FF                 1388 	.db #0xFF
   04DD FF                 1389 	.db #0xFF
   04DE FF                 1390 	.db #0xFF
   04DF FF                 1391 	.db #0xFF
   04E0 7F                 1392 	.db #0x7F
   04E1 FF                 1393 	.db #0xFF
   04E2 FF                 1394 	.db #0xFF
   04E3 FF                 1395 	.db #0xFF
   04E4 FF                 1396 	.db #0xFF
   04E5 FF                 1397 	.db #0xFF
   04E6 FF                 1398 	.db #0xFF
   04E7 FF                 1399 	.db #0xFF
   04E8 FF                 1400 	.db #0xFF
   04E9 FF                 1401 	.db #0xFF
   04EA F7                 1402 	.db #0xF7
   04EB FF                 1403 	.db #0xFF
   04EC FF                 1404 	.db #0xFF
   04ED FF                 1405 	.db #0xFF
   04EE FF                 1406 	.db #0xFF
   04EF FF                 1407 	.db #0xFF
   04F0 FF                 1408 	.db #0xFF
   04F1 FF                 1409 	.db #0xFF
   04F2 FF                 1410 	.db #0xFF
   04F3 DF                 1411 	.db #0xDF
   04F4 FF                 1412 	.db #0xFF
   04F5 EF                 1413 	.db #0xEF
   04F6 FF                 1414 	.db #0xFF
   04F7 FF                 1415 	.db #0xFF
   04F8 F7                 1416 	.db #0xF7
   04F9 FF                 1417 	.db #0xFF
   04FA FB                 1418 	.db #0xFB
   04FB FF                 1419 	.db #0xFF
   04FC FD                 1420 	.db #0xFD
   04FD FF                 1421 	.db #0xFF
   04FE FE                 1422 	.db #0xFE
   04FF FE                 1423 	.db #0xFE
   0500 FF                 1424 	.db #0xFF
   0501 FF                 1425 	.db #0xFF
   0502 FF                 1426 	.db #0xFF
   0503 FF                 1427 	.db #0xFF
   0504 FF                 1428 	.db #0xFF
   0505 F7                 1429 	.db #0xF7
   0506 FF                 1430 	.db #0xFF
   0507 FF                 1431 	.db #0xFF
   0508 FF                 1432 	.db #0xFF
   0509 FF                 1433 	.db #0xFF
   050A FF                 1434 	.db #0xFF
   050B FF                 1435 	.db #0xFF
   050C FF                 1436 	.db #0xFF
   050D 7D                 1437 	.db #0x7D
   050E FE                 1438 	.db #0xFE
   050F 7C                 1439 	.db #0x7C
   0510 39                 1440 	.db #0x39
   0511 FF                 1441 	.db #0xFF
   0512 FF                 1442 	.db #0xFF
   0513 F7                 1443 	.db #0xF7
   0514 FF                 1444 	.db #0xFF
   0515 EF                 1445 	.db #0xEF
   0516 FF                 1446 	.db #0xFF
   0517 FF                 1447 	.db #0xFF
   0518 DF                 1448 	.db #0xDF
   0519 FF                 1449 	.db #0xFF
   051A BF                 1450 	.db #0xBF
   051B FF                 1451 	.db #0xFF
   051C 7F                 1452 	.db #0x7F
   051D FF                 1453 	.db #0xFF
   051E FF                 1454 	.db #0xFF
   051F FF                 1455 	.db #0xFF
   0520 FF                 1456 	.db #0xFF
   0521 FF                 1457 	.db #0xFF
   0522 FF                 1458 	.db #0xFF
   0523 FF                 1459 	.db #0xFF
   0524 FF                 1460 	.db #0xFF
   0525 FF                 1461 	.db #0xFF
   0526 FF                 1462 	.db #0xFF
   0527 FF                 1463 	.db #0xFF
   0528 FF                 1464 	.db #0xFF
   0529 FF                 1465 	.db #0xFF
   052A FF                 1466 	.db #0xFF
   052B DF                 1467 	.db #0xDF
   052C FF                 1468 	.db #0xFF
   052D FF                 1469 	.db #0xFF
   052E FF                 1470 	.db #0xFF
   052F FF                 1471 	.db #0xFF
   0530 FF                 1472 	.db #0xFF
   0531 FF                 1473 	.db #0xFF
   0532 FF                 1474 	.db #0xFF
   0533 FF                 1475 	.db #0xFF
   0534 FF                 1476 	.db #0xFF
   0535 FF                 1477 	.db #0xFF
   0536 FF                 1478 	.db #0xFF
   0537 FF                 1479 	.db #0xFF
   0538 FF                 1480 	.db #0xFF
   0539 FF                 1481 	.db #0xFF
   053A FF                 1482 	.db #0xFF
   053B FE                 1483 	.db #0xFE
   053C FF                 1484 	.db #0xFF
   053D FF                 1485 	.db #0xFF
   053E FE                 1486 	.db #0xFE
   053F FF                 1487 	.db #0xFF
   0540 FD                 1488 	.db #0xFD
   0541 BB                 1489 	.db #0xBB
   0542 01                 1490 	.db #0x01
   0543 C7                 1491 	.db #0xC7
   0544 83                 1492 	.db #0x83
   0545 C7                 1493 	.db #0xC7
   0546 83                 1494 	.db #0x83
   0547 C7                 1495 	.db #0xC7
   0548 83                 1496 	.db #0x83
   0549 BB                 1497 	.db #0xBB
   054A 01                 1498 	.db #0x01
   054B 7C                 1499 	.db #0x7C
   054C 39                 1500 	.db #0x39
   054D 7D                 1501 	.db #0x7D
   054E FE                 1502 	.db #0xFE
   054F FF                 1503 	.db #0xFF
   0550 FF                 1504 	.db #0xFF
   0551 FF                 1505 	.db #0xFF
   0552 FF                 1506 	.db #0xFF
   0553 FF                 1507 	.db #0xFF
   0554 FF                 1508 	.db #0xFF
   0555 FF                 1509 	.db #0xFF
   0556 FF                 1510 	.db #0xFF
   0557 FF                 1511 	.db #0xFF
   0558 FF                 1512 	.db #0xFF
   0559 FF                 1513 	.db #0xFF
   055A FD                 1514 	.db #0xFD
   055B FF                 1515 	.db #0xFF
   055C FF                 1516 	.db #0xFF
   055D FF                 1517 	.db #0xFF
   055E FF                 1518 	.db #0xFF
   055F FF                 1519 	.db #0xFF
   0560 7F                 1520 	.db #0x7F
   0561 FF                 1521 	.db #0xFF
   0562 FF                 1522 	.db #0xFF
   0563 FF                 1523 	.db #0xFF
   0564 FF                 1524 	.db #0xFF
   0565 FD                 1525 	.db #0xFD
   0566 FF                 1526 	.db #0xFF
   0567 FF                 1527 	.db #0xFF
   0568 FE                 1528 	.db #0xFE
   0569 FF                 1529 	.db #0xFF
   056A FF                 1530 	.db #0xFF
   056B FF                 1531 	.db #0xFF
   056C 7F                 1532 	.db #0x7F
   056D FF                 1533 	.db #0xFF
   056E FF                 1534 	.db #0xFF
   056F FF                 1535 	.db #0xFF
   0570 FF                 1536 	.db #0xFF
   0571 FF                 1537 	.db #0xFF
   0572 FF                 1538 	.db #0xFF
   0573 FF                 1539 	.db #0xFF
   0574 FF                 1540 	.db #0xFF
   0575 FD                 1541 	.db #0xFD
   0576 FF                 1542 	.db #0xFF
   0577 FF                 1543 	.db #0xFF
   0578 FB                 1544 	.db #0xFB
   0579 AF                 1545 	.db #0xAF
   057A 77                 1546 	.db #0x77
   057B 27                 1547 	.db #0x27
   057C 8F                 1548 	.db #0x8F
   057D DF                 1549 	.db #0xDF
   057E 8F                 1550 	.db #0x8F
   057F 27                 1551 	.db #0x27
   0580 8F                 1552 	.db #0x8F
   0581 FF                 1553 	.db #0xFF
   0582 FF                 1554 	.db #0xFF
   0583 FF                 1555 	.db #0xFF
   0584 FE                 1556 	.db #0xFE
   0585 FF                 1557 	.db #0xFF
   0586 FF                 1558 	.db #0xFF
   0587 FF                 1559 	.db #0xFF
   0588 FF                 1560 	.db #0xFF
   0589 FF                 1561 	.db #0xFF
   058A FF                 1562 	.db #0xFF
   058B FF                 1563 	.db #0xFF
   058C FF                 1564 	.db #0xFF
   058D FF                 1565 	.db #0xFF
   058E FF                 1566 	.db #0xFF
   058F FF                 1567 	.db #0xFF
   0590 FF                 1568 	.db #0xFF
   0591 FF                 1569 	.db #0xFF
   0592 FB                 1570 	.db #0xFB
   0593 FF                 1571 	.db #0xFF
   0594 F7                 1572 	.db #0xF7
   0595 EF                 1573 	.db #0xEF
   0596 FF                 1574 	.db #0xFF
   0597 DF                 1575 	.db #0xDF
   0598 FF                 1576 	.db #0xFF
   0599 FF                 1577 	.db #0xFF
   059A FF                 1578 	.db #0xFF
   059B FF                 1579 	.db #0xFF
   059C FF                 1580 	.db #0xFF
   059D FF                 1581 	.db #0xFF
   059E FF                 1582 	.db #0xFF
   059F FF                 1583 	.db #0xFF
   05A0 FF                 1584 	.db #0xFF
   05A1 FF                 1585 	.db #0xFF
   05A2 FF                 1586 	.db #0xFF
   05A3 FF                 1587 	.db #0xFF
   05A4 FF                 1588 	.db #0xFF
   05A5 FF                 1589 	.db #0xFF
   05A6 FF                 1590 	.db #0xFF
   05A7 7F                 1591 	.db #0x7F
   05A8 FF                 1592 	.db #0xFF
   05A9 FF                 1593 	.db #0xFF
   05AA FB                 1594 	.db #0xFB
   05AB FF                 1595 	.db #0xFF
   05AC FF                 1596 	.db #0xFF
   05AD FF                 1597 	.db #0xFF
   05AE FF                 1598 	.db #0xFF
   05AF FF                 1599 	.db #0xFF
   05B0 FF                 1600 	.db #0xFF
   05B1 FF                 1601 	.db #0xFF
   05B2 BF                 1602 	.db #0xBF
   05B3 FF                 1603 	.db #0xFF
   05B4 DF                 1604 	.db #0xDF
   05B5 EF                 1605 	.db #0xEF
   05B6 FF                 1606 	.db #0xFF
   05B7 F7                 1607 	.db #0xF7
   05B8 FF                 1608 	.db #0xFF
   05B9 FF                 1609 	.db #0xFF
   05BA FF                 1610 	.db #0xFF
   05BB FF                 1611 	.db #0xFF
   05BC FF                 1612 	.db #0xFF
   05BD FF                 1613 	.db #0xFF
   05BE FF                 1614 	.db #0xFF
   05BF FF                 1615 	.db #0xFF
   05C0 FF                 1616 	.db #0xFF
   05C1 FF                 1617 	.db #0xFF
   05C2 FF                 1618 	.db #0xFF
   05C3 FF                 1619 	.db #0xFF
   05C4 FF                 1620 	.db #0xFF
   05C5 FF                 1621 	.db #0xFF
   05C6 FF                 1622 	.db #0xFF
   05C7 FF                 1623 	.db #0xFF
   05C8 FF                 1624 	.db #0xFF
   05C9 FF                 1625 	.db #0xFF
   05CA FD                 1626 	.db #0xFD
   05CB FF                 1627 	.db #0xFF
   05CC FF                 1628 	.db #0xFF
   05CD FF                 1629 	.db #0xFF
   05CE FF                 1630 	.db #0xFF
   05CF FF                 1631 	.db #0xFF
   05D0 FF                 1632 	.db #0xFF
   05D1 FF                 1633 	.db #0xFF
   05D2 FF                 1634 	.db #0xFF
   05D3 FF                 1635 	.db #0xFF
   05D4 FE                 1636 	.db #0xFE
   05D5 FD                 1637 	.db #0xFD
   05D6 FF                 1638 	.db #0xFF
   05D7 FF                 1639 	.db #0xFF
   05D8 FF                 1640 	.db #0xFF
   05D9 FF                 1641 	.db #0xFF
   05DA FF                 1642 	.db #0xFF
   05DB FF                 1643 	.db #0xFF
   05DC FF                 1644 	.db #0xFF
   05DD FF                 1645 	.db #0xFF
   05DE FF                 1646 	.db #0xFF
   05DF FF                 1647 	.db #0xFF
   05E0 FF                 1648 	.db #0xFF
   05E1 AF                 1649 	.db #0xAF
   05E2 77                 1650 	.db #0x77
   05E3 FF                 1651 	.db #0xFF
   05E4 FB                 1652 	.db #0xFB
   05E5 FD                 1653 	.db #0xFD
   05E6 FF                 1654 	.db #0xFF
   05E7 FF                 1655 	.db #0xFF
   05E8 FF                 1656 	.db #0xFF
   05E9 FF                 1657 	.db #0xFF
   05EA FF                 1658 	.db #0xFF
   05EB FF                 1659 	.db #0xFF
   05EC FF                 1660 	.db #0xFF
   05ED FF                 1661 	.db #0xFF
   05EE FF                 1662 	.db #0xFF
   05EF FF                 1663 	.db #0xFF
   05F0 FF                 1664 	.db #0xFF
   05F1 FF                 1665 	.db #0xFF
   05F2 FF                 1666 	.db #0xFF
   05F3 FF                 1667 	.db #0xFF
   05F4 FD                 1668 	.db #0xFD
   05F5 FF                 1669 	.db #0xFF
   05F6 FF                 1670 	.db #0xFF
   05F7 FF                 1671 	.db #0xFF
   05F8 FF                 1672 	.db #0xFF
   05F9 FF                 1673 	.db #0xFF
   05FA FF                 1674 	.db #0xFF
   05FB FF                 1675 	.db #0xFF
   05FC FF                 1676 	.db #0xFF
   05FD FF                 1677 	.db #0xFF
   05FE FF                 1678 	.db #0xFF
   05FF FB                 1679 	.db #0xFB
   0600 FF                 1680 	.db #0xFF
   0601 FF                 1681 	.db #0xFF
   0602 FF                 1682 	.db #0xFF
   0603 FF                 1683 	.db #0xFF
   0604 FF                 1684 	.db #0xFF
   0605 FE                 1685 	.db #0xFE
   0606 FF                 1686 	.db #0xFF
   0607 FF                 1687 	.db #0xFF
   0608 FF                 1688 	.db #0xFF
   0609 FF                 1689 	.db #0xFF
   060A FF                 1690 	.db #0xFF
   060B FF                 1691 	.db #0xFF
   060C FF                 1692 	.db #0xFF
   060D FF                 1693 	.db #0xFF
   060E 7F                 1694 	.db #0x7F
   060F FF                 1695 	.db #0xFF
   0610 FF                 1696 	.db #0xFF
   0611 FF                 1697 	.db #0xFF
   0612 FF                 1698 	.db #0xFF
   0613 FF                 1699 	.db #0xFF
   0614 FF                 1700 	.db #0xFF
   0615 FF                 1701 	.db #0xFF
   0616 FF                 1702 	.db #0xFF
   0617 FF                 1703 	.db #0xFF
   0618 FF                 1704 	.db #0xFF
   0619 FF                 1705 	.db #0xFF
   061A FF                 1706 	.db #0xFF
   061B F7                 1707 	.db #0xF7
   061C FF                 1708 	.db #0xFF
   061D FF                 1709 	.db #0xFF
   061E FF                 1710 	.db #0xFF
   061F FF                 1711 	.db #0xFF
   0620 FF                 1712 	.db #0xFF
   0621 FF                 1713 	.db #0xFF
   0622 FF                 1714 	.db #0xFF
   0623 FF                 1715 	.db #0xFF
   0624 FF                 1716 	.db #0xFF
   0625 FF                 1717 	.db #0xFF
   0626 FB                 1718 	.db #0xFB
   0627 FF                 1719 	.db #0xFF
   0628 FF                 1720 	.db #0xFF
   0629 FF                 1721 	.db #0xFF
   062A FF                 1722 	.db #0xFF
   062B FF                 1723 	.db #0xFF
   062C FF                 1724 	.db #0xFF
   062D FF                 1725 	.db #0xFF
   062E FF                 1726 	.db #0xFF
   062F FE                 1727 	.db #0xFE
   0630 FF                 1728 	.db #0xFF
   0631 FF                 1729 	.db #0xFF
   0632 FF                 1730 	.db #0xFF
   0633 FF                 1731 	.db #0xFF
   0634 FF                 1732 	.db #0xFF
   0635 FF                 1733 	.db #0xFF
   0636 FF                 1734 	.db #0xFF
   0637 FF                 1735 	.db #0xFF
   0638 FF                 1736 	.db #0xFF
   0639 FF                 1737 	.db #0xFF
   063A FF                 1738 	.db #0xFF
   063B FE                 1739 	.db #0xFE
   063C FF                 1740 	.db #0xFF
   063D 7D                 1741 	.db #0x7D
   063E FE                 1742 	.db #0xFE
   063F 7C                 1743 	.db #0x7C
   0640 39                 1744 	.db #0x39
   0641 FF                 1745 	.db #0xFF
   0642 FF                 1746 	.db #0xFF
   0643 F7                 1747 	.db #0xF7
   0644 FF                 1748 	.db #0xFF
   0645 EF                 1749 	.db #0xEF
   0646 FF                 1750 	.db #0xFF
   0647 FF                 1751 	.db #0xFF
   0648 DF                 1752 	.db #0xDF
   0649 FF                 1753 	.db #0xFF
   064A BF                 1754 	.db #0xBF
   064B FF                 1755 	.db #0xFF
   064C 7F                 1756 	.db #0x7F
   064D 7F                 1757 	.db #0x7F
   064E FF                 1758 	.db #0xFF
   064F FF                 1759 	.db #0xFF
   0650 FF                 1760 	.db #0xFF
   0651 FF                 1761 	.db #0xFF
   0652 FF                 1762 	.db #0xFF
   0653 FF                 1763 	.db #0xFF
   0654 FF                 1764 	.db #0xFF
   0655 FF                 1765 	.db #0xFF
   0656 FF                 1766 	.db #0xFF
   0657 BF                 1767 	.db #0xBF
   0658 FF                 1768 	.db #0xFF
   0659 FF                 1769 	.db #0xFF
   065A FF                 1770 	.db #0xFF
   065B FF                 1771 	.db #0xFF
   065C FF                 1772 	.db #0xFF
   065D FD                 1773 	.db #0xFD
   065E FF                 1774 	.db #0xFF
   065F FF                 1775 	.db #0xFF
   0660 FF                 1776 	.db #0xFF
   0661 FF                 1777 	.db #0xFF
   0662 FF                 1778 	.db #0xFF
   0663 FF                 1779 	.db #0xFF
   0664 FF                 1780 	.db #0xFF
   0665 FF                 1781 	.db #0xFF
   0666 EF                 1782 	.db #0xEF
   0667 FF                 1783 	.db #0xFF
   0668 FF                 1784 	.db #0xFF
   0669 FF                 1785 	.db #0xFF
   066A FF                 1786 	.db #0xFF
   066B FF                 1787 	.db #0xFF
   066C FF                 1788 	.db #0xFF
   066D FF                 1789 	.db #0xFF
   066E FF                 1790 	.db #0xFF
   066F FF                 1791 	.db #0xFF
   0670 FF                 1792 	.db #0xFF
   0671 FF                 1793 	.db #0xFF
   0672 FF                 1794 	.db #0xFF
   0673 FF                 1795 	.db #0xFF
   0674 FF                 1796 	.db #0xFF
   0675 FF                 1797 	.db #0xFF
   0676 FF                 1798 	.db #0xFF
   0677 FF                 1799 	.db #0xFF
   0678 FF                 1800 	.db #0xFF
   0679 FF                 1801 	.db #0xFF
   067A FF                 1802 	.db #0xFF
   067B FF                 1803 	.db #0xFF
   067C FF                 1804 	.db #0xFF
   067D FF                 1805 	.db #0xFF
   067E FF                 1806 	.db #0xFF
   067F 7F                 1807 	.db #0x7F
   0680 FD                 1808 	.db #0xFD
   0681 FF                 1809 	.db #0xFF
   0682 FF                 1810 	.db #0xFF
   0683 DF                 1811 	.db #0xDF
   0684 FF                 1812 	.db #0xFF
   0685 EF                 1813 	.db #0xEF
   0686 FF                 1814 	.db #0xFF
   0687 FF                 1815 	.db #0xFF
   0688 F7                 1816 	.db #0xF7
   0689 FF                 1817 	.db #0xFF
   068A FB                 1818 	.db #0xFB
   068B FE                 1819 	.db #0xFE
   068C FD                 1820 	.db #0xFD
   068D FD                 1821 	.db #0xFD
   068E FE                 1822 	.db #0xFE
   068F FE                 1823 	.db #0xFE
   0690 FF                 1824 	.db #0xFF
   0691 AB                 1825 	.db #0xAB
   0692 11                 1826 	.db #0x11
   0693 C7                 1827 	.db #0xC7
   0694 83                 1828 	.db #0x83
   0695 83                 1829 	.db #0x83
   0696 C7                 1830 	.db #0xC7
   0697 C7                 1831 	.db #0xC7
   0698 83                 1832 	.db #0x83
   0699 AB                 1833 	.db #0xAB
   069A 11                 1834 	.db #0x11
   069B 7C                 1835 	.db #0x7C
   069C 39                 1836 	.db #0x39
   069D 7D                 1837 	.db #0x7D
   069E FE                 1838 	.db #0xFE
   069F FE                 1839 	.db #0xFE
   06A0 FF                 1840 	.db #0xFF
   06A1 FF                 1841 	.db #0xFF
   06A2 FF                 1842 	.db #0xFF
   06A3 FF                 1843 	.db #0xFF
   06A4 FF                 1844 	.db #0xFF
   06A5 FB                 1845 	.db #0xFB
   06A6 DF                 1846 	.db #0xDF
   06A7 FF                 1847 	.db #0xFF
   06A8 FF                 1848 	.db #0xFF
   06A9 FF                 1849 	.db #0xFF
   06AA FF                 1850 	.db #0xFF
   06AB FF                 1851 	.db #0xFF
   06AC FF                 1852 	.db #0xFF
   06AD 7F                 1853 	.db #0x7F
   06AE FF                 1854 	.db #0xFF
   06AF FF                 1855 	.db #0xFF
   06B0 7F                 1856 	.db #0x7F
   06B1 FB                 1857 	.db #0xFB
   06B2 FF                 1858 	.db #0xFF
   06B3 FF                 1859 	.db #0xFF
   06B4 FD                 1860 	.db #0xFD
   06B5 FE                 1861 	.db #0xFE
   06B6 FE                 1862 	.db #0xFE
   06B7 FE                 1863 	.db #0xFE
   06B8 FF                 1864 	.db #0xFF
   06B9 FE                 1865 	.db #0xFE
   06BA FE                 1866 	.db #0xFE
   06BB FF                 1867 	.db #0xFF
   06BC FD                 1868 	.db #0xFD
   06BD FB                 1869 	.db #0xFB
   06BE FF                 1870 	.db #0xFF
   06BF FF                 1871 	.db #0xFF
   06C0 FF                 1872 	.db #0xFF
   06C1 EF                 1873 	.db #0xEF
   06C2 FF                 1874 	.db #0xFF
   06C3 FF                 1875 	.db #0xFF
   06C4 DF                 1876 	.db #0xDF
   06C5 3F                 1877 	.db #0x3F
   06C6 BF                 1878 	.db #0xBF
   06C7 3F                 1879 	.db #0x3F
   06C8 7F                 1880 	.db #0x7F
   06C9 3F                 1881 	.db #0x3F
   06CA BF                 1882 	.db #0xBF
   06CB FF                 1883 	.db #0xFF
   06CC DF                 1884 	.db #0xDF
   06CD EF                 1885 	.db #0xEF
   06CE FF                 1886 	.db #0xFF
   06CF FF                 1887 	.db #0xFF
   06D0 FF                 1888 	.db #0xFF
   06D1 FF                 1889 	.db #0xFF
   06D2 FF                 1890 	.db #0xFF
   06D3 FF                 1891 	.db #0xFF
   06D4 FF                 1892 	.db #0xFF
   06D5 FF                 1893 	.db #0xFF
   06D6 FF                 1894 	.db #0xFF
   06D7 FF                 1895 	.db #0xFF
   06D8 FF                 1896 	.db #0xFF
   06D9 FF                 1897 	.db #0xFF
   06DA FF                 1898 	.db #0xFF
   06DB EF                 1899 	.db #0xEF
   06DC FB                 1900 	.db #0xFB
   06DD FF                 1901 	.db #0xFF
   06DE FF                 1902 	.db #0xFF
   06DF FF                 1903 	.db #0xFF
   06E0 FF                 1904 	.db #0xFF
   06E1 FF                 1905 	.db #0xFF
   06E2 FF                 1906 	.db #0xFF
   06E3 FF                 1907 	.db #0xFF
   06E4 FF                 1908 	.db #0xFF
   06E5 FF                 1909 	.db #0xFF
   06E6 FF                 1910 	.db #0xFF
   06E7 FF                 1911 	.db #0xFF
   06E8 FF                 1912 	.db #0xFF
   06E9 FF                 1913 	.db #0xFF
   06EA FF                 1914 	.db #0xFF
   06EB FE                 1915 	.db #0xFE
   06EC FF                 1916 	.db #0xFF
   06ED FD                 1917 	.db #0xFD
   06EE FE                 1918 	.db #0xFE
   06EF FE                 1919 	.db #0xFE
   06F0 FD                 1920 	.db #0xFD
   06F1 FF                 1921 	.db #0xFF
   06F2 FF                 1922 	.db #0xFF
   06F3 FF                 1923 	.db #0xFF
   06F4 FF                 1924 	.db #0xFF
   06F5 FF                 1925 	.db #0xFF
   06F6 FF                 1926 	.db #0xFF
   06F7 FF                 1927 	.db #0xFF
   06F8 FF                 1928 	.db #0xFF
   06F9 FF                 1929 	.db #0xFF
   06FA FF                 1930 	.db #0xFF
   06FB FF                 1931 	.db #0xFF
   06FC FF                 1932 	.db #0xFF
   06FD FF                 1933 	.db #0xFF
   06FE FB                 1934 	.db #0xFB
   06FF FF                 1935 	.db #0xFF
   0700 FF                 1936 	.db #0xFF
   0701 F7                 1937 	.db #0xF7
   0702 FF                 1938 	.db #0xFF
   0703 FB                 1939 	.db #0xFB
   0704 FF                 1940 	.db #0xFF
   0705 FF                 1941 	.db #0xFF
   0706 FF                 1942 	.db #0xFF
   0707 FF                 1943 	.db #0xFF
   0708 FF                 1944 	.db #0xFF
   0709 FF                 1945 	.db #0xFF
   070A FF                 1946 	.db #0xFF
   070B FF                 1947 	.db #0xFF
   070C FF                 1948 	.db #0xFF
   070D FF                 1949 	.db #0xFF
   070E FF                 1950 	.db #0xFF
   070F FF                 1951 	.db #0xFF
   0710 FF                 1952 	.db #0xFF
   0711 FF                 1953 	.db #0xFF
   0712 FF                 1954 	.db #0xFF
   0713 FF                 1955 	.db #0xFF
   0714 FF                 1956 	.db #0xFF
   0715 FF                 1957 	.db #0xFF
   0716 BF                 1958 	.db #0xBF
   0717 FF                 1959 	.db #0xFF
   0718 FF                 1960 	.db #0xFF
   0719 FF                 1961 	.db #0xFF
   071A FF                 1962 	.db #0xFF
   071B FF                 1963 	.db #0xFF
   071C FF                 1964 	.db #0xFF
   071D FF                 1965 	.db #0xFF
   071E FF                 1966 	.db #0xFF
   071F FF                 1967 	.db #0xFF
   0720 FF                 1968 	.db #0xFF
   0721 FF                 1969 	.db #0xFF
   0722 FF                 1970 	.db #0xFF
   0723 FF                 1971 	.db #0xFF
   0724 FF                 1972 	.db #0xFF
   0725 FF                 1973 	.db #0xFF
   0726 FF                 1974 	.db #0xFF
   0727 FF                 1975 	.db #0xFF
   0728 FF                 1976 	.db #0xFF
   0729 FF                 1977 	.db #0xFF
   072A FE                 1978 	.db #0xFE
   072B FE                 1979 	.db #0xFE
   072C FF                 1980 	.db #0xFF
   072D FF                 1981 	.db #0xFF
   072E FF                 1982 	.db #0xFF
   072F FF                 1983 	.db #0xFF
   0730 FF                 1984 	.db #0xFF
   0731 FF                 1985 	.db #0xFF
   0732 FF                 1986 	.db #0xFF
   0733 FF                 1987 	.db #0xFF
   0734 FF                 1988 	.db #0xFF
   0735 FF                 1989 	.db #0xFF
   0736 FF                 1990 	.db #0xFF
   0737 FF                 1991 	.db #0xFF
   0738 FD                 1992 	.db #0xFD
   0739 FF                 1993 	.db #0xFF
   073A FF                 1994 	.db #0xFF
   073B FF                 1995 	.db #0xFF
   073C FF                 1996 	.db #0xFF
   073D FF                 1997 	.db #0xFF
   073E FF                 1998 	.db #0xFF
   073F FF                 1999 	.db #0xFF
   0740 FF                 2000 	.db #0xFF
   0741 FF                 2001 	.db #0xFF
   0742 FF                 2002 	.db #0xFF
   0743 FF                 2003 	.db #0xFF
   0744 FF                 2004 	.db #0xFF
   0745 7F                 2005 	.db #0x7F
   0746 FF                 2006 	.db #0xFF
   0747 FF                 2007 	.db #0xFF
   0748 FF                 2008 	.db #0xFF
   0749 FF                 2009 	.db #0xFF
   074A FF                 2010 	.db #0xFF
   074B FF                 2011 	.db #0xFF
   074C FF                 2012 	.db #0xFF
   074D FF                 2013 	.db #0xFF
   074E FF                 2014 	.db #0xFF
   074F FF                 2015 	.db #0xFF
   0750 FF                 2016 	.db #0xFF
   0751                    2017 _bkg_tiles:
   0751 00                 2018 	.db #0x00
   0752 01                 2019 	.db #0x01
   0753 02                 2020 	.db #0x02
   0754 03                 2021 	.db #0x03
   0755 FC                 2022 	.db #0xFC
   0756 FC                 2023 	.db #0xFC
   0757 04                 2024 	.db #0x04
   0758 FC                 2025 	.db #0xFC
   0759 FC                 2026 	.db #0xFC
   075A 05                 2027 	.db #0x05
   075B 06                 2028 	.db #0x06
   075C FC                 2029 	.db #0xFC
   075D 07                 2030 	.db #0x07
   075E 08                 2031 	.db #0x08
   075F 09                 2032 	.db #0x09
   0760 0A                 2033 	.db #0x0A
   0761 FC                 2034 	.db #0xFC
   0762 FC                 2035 	.db #0xFC
   0763 FC                 2036 	.db #0xFC
   0764 02                 2037 	.db #0x02
   0765 0B                 2038 	.db #0x0B
   0766 0C                 2039 	.db #0x0C
   0767 0D                 2040 	.db #0x0D
   0768 FC                 2041 	.db #0xFC
   0769 0E                 2042 	.db #0x0E
   076A 0F                 2043 	.db #0x0F
   076B 10                 2044 	.db #0x10
   076C FC                 2045 	.db #0xFC
   076D 11                 2046 	.db #0x11
   076E 12                 2047 	.db #0x12
   076F 13                 2048 	.db #0x13
   0770 14                 2049 	.db #0x14
   0771 15                 2050 	.db #0x15
   0772 16                 2051 	.db #0x16
   0773 17                 2052 	.db #0x17
   0774 FC                 2053 	.db #0xFC
   0775 18                 2054 	.db #0x18
   0776 19                 2055 	.db #0x19
   0777 1A                 2056 	.db #0x1A
   0778 FC                 2057 	.db #0xFC
   0779 1B                 2058 	.db #0x1B
   077A 1C                 2059 	.db #0x1C
   077B 1D                 2060 	.db #0x1D
   077C FC                 2061 	.db #0xFC
   077D FC                 2062 	.db #0xFC
   077E 1E                 2063 	.db #0x1E
   077F 1F                 2064 	.db #0x1F
   0780 20                 2065 	.db #0x20
   0781 21                 2066 	.db #0x21
   0782 22                 2067 	.db #0x22
   0783 FC                 2068 	.db #0xFC
   0784 23                 2069 	.db #0x23
   0785 24                 2070 	.db #0x24
   0786 25                 2071 	.db #0x25
   0787 FC                 2072 	.db #0xFC
   0788 26                 2073 	.db #0x26
   0789 27                 2074 	.db #0x27
   078A 13                 2075 	.db #0x13
   078B 28                 2076 	.db #0x28
   078C 29                 2077 	.db #0x29
   078D 2A                 2078 	.db #0x2A
   078E 2B                 2079 	.db #0x2B
   078F 2C                 2080 	.db #0x2C
   0790 11                 2081 	.db #0x11
   0791                    2082 _earth_tiles:
   0791 00                 2083 	.db #0x00
   0792 02                 2084 	.db #0x02
   0793 04                 2085 	.db #0x04
   0794 06                 2086 	.db #0x06
   0795 08                 2087 	.db #0x08
   0796 0A                 2088 	.db #0x0A
   0797 0C                 2089 	.db #0x0C
   0798 0E                 2090 	.db #0x0E
   0799 10                 2091 	.db #0x10
   079A 12                 2092 	.db #0x12
   079B 14                 2093 	.db #0x14
   079C 16                 2094 	.db #0x16
   079D 18                 2095 	.db #0x18
   079E 1A                 2096 	.db #0x1A
   079F                    2097 _frame_tiles:
   079F 80                 2098 	.db #0x80
   07A0 81                 2099 	.db #0x81
   07A1 FD                 2100 	.db #0xFD
   07A2 82                 2101 	.db #0x82
   07A3 83                 2102 	.db #0x83
   07A4 81                 2103 	.db #0x81
   07A5 FD                 2104 	.db #0xFD
   07A6 82                 2105 	.db #0x82
   07A7 83                 2106 	.db #0x83
   07A8 81                 2107 	.db #0x81
   07A9 FD                 2108 	.db #0xFD
   07AA 82                 2109 	.db #0x82
   07AB 83                 2110 	.db #0x83
   07AC 81                 2111 	.db #0x81
   07AD FD                 2112 	.db #0xFD
   07AE 84                 2113 	.db #0x84
   07AF 85                 2114 	.db #0x85
   07B0 86                 2115 	.db #0x86
   07B1 87                 2116 	.db #0x87
   07B2 88                 2117 	.db #0x88
   07B3 89                 2118 	.db #0x89
   07B4 8A                 2119 	.db #0x8A
   07B5 87                 2120 	.db #0x87
   07B6 88                 2121 	.db #0x88
   07B7 89                 2122 	.db #0x89
   07B8 8A                 2123 	.db #0x8A
   07B9 87                 2124 	.db #0x87
   07BA 88                 2125 	.db #0x88
   07BB 89                 2126 	.db #0x89
   07BC 8A                 2127 	.db #0x8A
   07BD 8B                 2128 	.db #0x8B
   07BE 8C                 2129 	.db #0x8C
   07BF FD                 2130 	.db #0xFD
   07C0 8D                 2131 	.db #0x8D
   07C1 FF                 2132 	.db #0xFF
   07C2 FF                 2133 	.db #0xFF
   07C3 FF                 2134 	.db #0xFF
   07C4 FF                 2135 	.db #0xFF
   07C5 FF                 2136 	.db #0xFF
   07C6 FF                 2137 	.db #0xFF
   07C7 FF                 2138 	.db #0xFF
   07C8 FF                 2139 	.db #0xFF
   07C9 FF                 2140 	.db #0xFF
   07CA FF                 2141 	.db #0xFF
   07CB FF                 2142 	.db #0xFF
   07CC FF                 2143 	.db #0xFF
   07CD 8E                 2144 	.db #0x8E
   07CE 8F                 2145 	.db #0x8F
   07CF 82                 2146 	.db #0x82
   07D0 8C                 2147 	.db #0x8C
   07D1 FF                 2148 	.db #0xFF
   07D2 FF                 2149 	.db #0xFF
   07D3 FF                 2150 	.db #0xFF
   07D4 FF                 2151 	.db #0xFF
   07D5 FF                 2152 	.db #0xFF
   07D6 FF                 2153 	.db #0xFF
   07D7 FF                 2154 	.db #0xFF
   07D8 FF                 2155 	.db #0xFF
   07D9 FF                 2156 	.db #0xFF
   07DA FF                 2157 	.db #0xFF
   07DB FF                 2158 	.db #0xFF
   07DC FF                 2159 	.db #0xFF
   07DD 85                 2160 	.db #0x85
   07DE 90                 2161 	.db #0x90
   07DF 8E                 2162 	.db #0x8E
   07E0 8F                 2163 	.db #0x8F
   07E1 FF                 2164 	.db #0xFF
   07E2 FF                 2165 	.db #0xFF
   07E3 FF                 2166 	.db #0xFF
   07E4 FF                 2167 	.db #0xFF
   07E5 FF                 2168 	.db #0xFF
   07E6 FF                 2169 	.db #0xFF
   07E7 FF                 2170 	.db #0xFF
   07E8 FF                 2171 	.db #0xFF
   07E9 FF                 2172 	.db #0xFF
   07EA FF                 2173 	.db #0xFF
   07EB FF                 2174 	.db #0xFF
   07EC FF                 2175 	.db #0xFF
   07ED FD                 2176 	.db #0xFD
   07EE 8D                 2177 	.db #0x8D
   07EF 85                 2178 	.db #0x85
   07F0 90                 2179 	.db #0x90
   07F1 FF                 2180 	.db #0xFF
   07F2 FF                 2181 	.db #0xFF
   07F3 FF                 2182 	.db #0xFF
   07F4 FF                 2183 	.db #0xFF
   07F5 FF                 2184 	.db #0xFF
   07F6 FF                 2185 	.db #0xFF
   07F7 FF                 2186 	.db #0xFF
   07F8 FF                 2187 	.db #0xFF
   07F9 FF                 2188 	.db #0xFF
   07FA FF                 2189 	.db #0xFF
   07FB FF                 2190 	.db #0xFF
   07FC FF                 2191 	.db #0xFF
   07FD 82                 2192 	.db #0x82
   07FE 8C                 2193 	.db #0x8C
   07FF FD                 2194 	.db #0xFD
   0800 8D                 2195 	.db #0x8D
   0801 FF                 2196 	.db #0xFF
   0802 FF                 2197 	.db #0xFF
   0803 FF                 2198 	.db #0xFF
   0804 FF                 2199 	.db #0xFF
   0805 FF                 2200 	.db #0xFF
   0806 FF                 2201 	.db #0xFF
   0807 FF                 2202 	.db #0xFF
   0808 FF                 2203 	.db #0xFF
   0809 FF                 2204 	.db #0xFF
   080A FF                 2205 	.db #0xFF
   080B FF                 2206 	.db #0xFF
   080C FF                 2207 	.db #0xFF
   080D 8E                 2208 	.db #0x8E
   080E 8F                 2209 	.db #0x8F
   080F 82                 2210 	.db #0x82
   0810 8C                 2211 	.db #0x8C
   0811 FF                 2212 	.db #0xFF
   0812 FF                 2213 	.db #0xFF
   0813 FF                 2214 	.db #0xFF
   0814 FF                 2215 	.db #0xFF
   0815 FF                 2216 	.db #0xFF
   0816 FF                 2217 	.db #0xFF
   0817 FF                 2218 	.db #0xFF
   0818 FF                 2219 	.db #0xFF
   0819 FF                 2220 	.db #0xFF
   081A FF                 2221 	.db #0xFF
   081B FF                 2222 	.db #0xFF
   081C FF                 2223 	.db #0xFF
   081D 85                 2224 	.db #0x85
   081E 90                 2225 	.db #0x90
   081F 8E                 2226 	.db #0x8E
   0820 91                 2227 	.db #0x91
   0821 FD                 2228 	.db #0xFD
   0822 82                 2229 	.db #0x82
   0823 83                 2230 	.db #0x83
   0824 81                 2231 	.db #0x81
   0825 FD                 2232 	.db #0xFD
   0826 82                 2233 	.db #0x82
   0827 83                 2234 	.db #0x83
   0828 81                 2235 	.db #0x81
   0829 FD                 2236 	.db #0xFD
   082A 82                 2237 	.db #0x82
   082B 83                 2238 	.db #0x83
   082C 81                 2239 	.db #0x81
   082D 92                 2240 	.db #0x92
   082E 8D                 2241 	.db #0x8D
   082F 93                 2242 	.db #0x93
   0830 8A                 2243 	.db #0x8A
   0831 87                 2244 	.db #0x87
   0832 88                 2245 	.db #0x88
   0833 89                 2246 	.db #0x89
   0834 8A                 2247 	.db #0x8A
   0835 87                 2248 	.db #0x87
   0836 88                 2249 	.db #0x88
   0837 89                 2250 	.db #0x89
   0838 8A                 2251 	.db #0x8A
   0839 87                 2252 	.db #0x87
   083A 88                 2253 	.db #0x88
   083B 89                 2254 	.db #0x89
   083C 8A                 2255 	.db #0x8A
   083D 87                 2256 	.db #0x87
   083E 94                 2257 	.db #0x94
   083F                    2258 _door1_tiles:
   083F 95                 2259 	.db #0x95
   0840 95                 2260 	.db #0x95
   0841 95                 2261 	.db #0x95
   0842 95                 2262 	.db #0x95
   0843 95                 2263 	.db #0x95
   0844 95                 2264 	.db #0x95
   0845 95                 2265 	.db #0x95
   0846 95                 2266 	.db #0x95
   0847 95                 2267 	.db #0x95
   0848 95                 2268 	.db #0x95
   0849 95                 2269 	.db #0x95
   084A 95                 2270 	.db #0x95
   084B 96                 2271 	.db #0x96
   084C 96                 2272 	.db #0x96
   084D 96                 2273 	.db #0x96
   084E 96                 2274 	.db #0x96
   084F 96                 2275 	.db #0x96
   0850 96                 2276 	.db #0x96
   0851 96                 2277 	.db #0x96
   0852 96                 2278 	.db #0x96
   0853 96                 2279 	.db #0x96
   0854 96                 2280 	.db #0x96
   0855 96                 2281 	.db #0x96
   0856 96                 2282 	.db #0x96
   0857 97                 2283 	.db #0x97
   0858 97                 2284 	.db #0x97
   0859 97                 2285 	.db #0x97
   085A 97                 2286 	.db #0x97
   085B 97                 2287 	.db #0x97
   085C 97                 2288 	.db #0x97
   085D 97                 2289 	.db #0x97
   085E 97                 2290 	.db #0x97
   085F 97                 2291 	.db #0x97
   0860 97                 2292 	.db #0x97
   0861 97                 2293 	.db #0x97
   0862 97                 2294 	.db #0x97
   0863 95                 2295 	.db #0x95
   0864 95                 2296 	.db #0x95
   0865 95                 2297 	.db #0x95
   0866 95                 2298 	.db #0x95
   0867 95                 2299 	.db #0x95
   0868 95                 2300 	.db #0x95
   0869 95                 2301 	.db #0x95
   086A 95                 2302 	.db #0x95
   086B 95                 2303 	.db #0x95
   086C 95                 2304 	.db #0x95
   086D 95                 2305 	.db #0x95
   086E 95                 2306 	.db #0x95
   086F 96                 2307 	.db #0x96
   0870 96                 2308 	.db #0x96
   0871 96                 2309 	.db #0x96
   0872 96                 2310 	.db #0x96
   0873 96                 2311 	.db #0x96
   0874 96                 2312 	.db #0x96
   0875 96                 2313 	.db #0x96
   0876 96                 2314 	.db #0x96
   0877 96                 2315 	.db #0x96
   0878 96                 2316 	.db #0x96
   0879 96                 2317 	.db #0x96
   087A 96                 2318 	.db #0x96
   087B 97                 2319 	.db #0x97
   087C 97                 2320 	.db #0x97
   087D 97                 2321 	.db #0x97
   087E 97                 2322 	.db #0x97
   087F 97                 2323 	.db #0x97
   0880 97                 2324 	.db #0x97
   0881 97                 2325 	.db #0x97
   0882 97                 2326 	.db #0x97
   0883 97                 2327 	.db #0x97
   0884 97                 2328 	.db #0x97
   0885 97                 2329 	.db #0x97
   0886 97                 2330 	.db #0x97
   0887 FC                 2331 	.db #0xFC
   0888 FC                 2332 	.db #0xFC
   0889 FC                 2333 	.db #0xFC
   088A FC                 2334 	.db #0xFC
   088B FC                 2335 	.db #0xFC
   088C FC                 2336 	.db #0xFC
   088D FC                 2337 	.db #0xFC
   088E FC                 2338 	.db #0xFC
   088F FC                 2339 	.db #0xFC
   0890 FC                 2340 	.db #0xFC
   0891 FC                 2341 	.db #0xFC
   0892 FC                 2342 	.db #0xFC
   0893 FC                 2343 	.db #0xFC
   0894 FC                 2344 	.db #0xFC
   0895 FC                 2345 	.db #0xFC
   0896 FC                 2346 	.db #0xFC
   0897 FC                 2347 	.db #0xFC
   0898 FC                 2348 	.db #0xFC
   0899 FC                 2349 	.db #0xFC
   089A FC                 2350 	.db #0xFC
   089B FC                 2351 	.db #0xFC
   089C FC                 2352 	.db #0xFC
   089D FC                 2353 	.db #0xFC
   089E FC                 2354 	.db #0xFC
   089F FC                 2355 	.db #0xFC
   08A0 FC                 2356 	.db #0xFC
   08A1 FC                 2357 	.db #0xFC
   08A2 FC                 2358 	.db #0xFC
   08A3 FC                 2359 	.db #0xFC
   08A4 FC                 2360 	.db #0xFC
   08A5 FC                 2361 	.db #0xFC
   08A6 FC                 2362 	.db #0xFC
   08A7 FC                 2363 	.db #0xFC
   08A8 FC                 2364 	.db #0xFC
   08A9 FC                 2365 	.db #0xFC
   08AA FC                 2366 	.db #0xFC
   08AB FC                 2367 	.db #0xFC
   08AC FC                 2368 	.db #0xFC
   08AD FC                 2369 	.db #0xFC
   08AE FC                 2370 	.db #0xFC
   08AF FC                 2371 	.db #0xFC
   08B0 FC                 2372 	.db #0xFC
   08B1 FC                 2373 	.db #0xFC
   08B2 FC                 2374 	.db #0xFC
   08B3 FC                 2375 	.db #0xFC
   08B4 FC                 2376 	.db #0xFC
   08B5 FC                 2377 	.db #0xFC
   08B6 FC                 2378 	.db #0xFC
   08B7 FC                 2379 	.db #0xFC
   08B8 FC                 2380 	.db #0xFC
   08B9 FC                 2381 	.db #0xFC
   08BA FC                 2382 	.db #0xFC
   08BB FC                 2383 	.db #0xFC
   08BC FC                 2384 	.db #0xFC
   08BD FC                 2385 	.db #0xFC
   08BE FC                 2386 	.db #0xFC
   08BF FC                 2387 	.db #0xFC
   08C0 FC                 2388 	.db #0xFC
   08C1 FC                 2389 	.db #0xFC
   08C2 FC                 2390 	.db #0xFC
   08C3 FC                 2391 	.db #0xFC
   08C4 FC                 2392 	.db #0xFC
   08C5 FC                 2393 	.db #0xFC
   08C6 FC                 2394 	.db #0xFC
   08C7 FC                 2395 	.db #0xFC
   08C8 FC                 2396 	.db #0xFC
   08C9 FC                 2397 	.db #0xFC
   08CA FC                 2398 	.db #0xFC
   08CB FC                 2399 	.db #0xFC
   08CC FC                 2400 	.db #0xFC
   08CD FC                 2401 	.db #0xFC
   08CE FC                 2402 	.db #0xFC
   08CF                    2403 _door2_tiles:
   08CF 98                 2404 	.db #0x98
   08D0 98                 2405 	.db #0x98
   08D1 98                 2406 	.db #0x98
   08D2 98                 2407 	.db #0x98
   08D3 98                 2408 	.db #0x98
   08D4 98                 2409 	.db #0x98
   08D5 98                 2410 	.db #0x98
   08D6 98                 2411 	.db #0x98
   08D7 98                 2412 	.db #0x98
   08D8 98                 2413 	.db #0x98
   08D9 98                 2414 	.db #0x98
   08DA 98                 2415 	.db #0x98
   08DB 99                 2416 	.db #0x99
   08DC 99                 2417 	.db #0x99
   08DD 99                 2418 	.db #0x99
   08DE 99                 2419 	.db #0x99
   08DF 99                 2420 	.db #0x99
   08E0 99                 2421 	.db #0x99
   08E1 99                 2422 	.db #0x99
   08E2 99                 2423 	.db #0x99
   08E3 99                 2424 	.db #0x99
   08E4 99                 2425 	.db #0x99
   08E5 99                 2426 	.db #0x99
   08E6 99                 2427 	.db #0x99
   08E7 9A                 2428 	.db #0x9A
   08E8 9A                 2429 	.db #0x9A
   08E9 9A                 2430 	.db #0x9A
   08EA 9A                 2431 	.db #0x9A
   08EB 9A                 2432 	.db #0x9A
   08EC 9A                 2433 	.db #0x9A
   08ED 9A                 2434 	.db #0x9A
   08EE 9A                 2435 	.db #0x9A
   08EF 9A                 2436 	.db #0x9A
   08F0 9A                 2437 	.db #0x9A
   08F1 9A                 2438 	.db #0x9A
   08F2 9A                 2439 	.db #0x9A
   08F3 98                 2440 	.db #0x98
   08F4 98                 2441 	.db #0x98
   08F5 98                 2442 	.db #0x98
   08F6 98                 2443 	.db #0x98
   08F7 98                 2444 	.db #0x98
   08F8 98                 2445 	.db #0x98
   08F9 98                 2446 	.db #0x98
   08FA 98                 2447 	.db #0x98
   08FB 98                 2448 	.db #0x98
   08FC 98                 2449 	.db #0x98
   08FD 98                 2450 	.db #0x98
   08FE 98                 2451 	.db #0x98
   08FF 99                 2452 	.db #0x99
   0900 99                 2453 	.db #0x99
   0901 99                 2454 	.db #0x99
   0902 99                 2455 	.db #0x99
   0903 99                 2456 	.db #0x99
   0904 99                 2457 	.db #0x99
   0905 99                 2458 	.db #0x99
   0906 99                 2459 	.db #0x99
   0907 99                 2460 	.db #0x99
   0908 99                 2461 	.db #0x99
   0909 99                 2462 	.db #0x99
   090A 99                 2463 	.db #0x99
   090B 9B                 2464 	.db #0x9B
   090C 9B                 2465 	.db #0x9B
   090D 9B                 2466 	.db #0x9B
   090E 9B                 2467 	.db #0x9B
   090F 9B                 2468 	.db #0x9B
   0910 9B                 2469 	.db #0x9B
   0911 9B                 2470 	.db #0x9B
   0912 9B                 2471 	.db #0x9B
   0913 9B                 2472 	.db #0x9B
   0914 9B                 2473 	.db #0x9B
   0915 9B                 2474 	.db #0x9B
   0916 9B                 2475 	.db #0x9B
   0917 FC                 2476 	.db #0xFC
   0918 FC                 2477 	.db #0xFC
   0919 FC                 2478 	.db #0xFC
   091A FC                 2479 	.db #0xFC
   091B FC                 2480 	.db #0xFC
   091C FC                 2481 	.db #0xFC
   091D FC                 2482 	.db #0xFC
   091E FC                 2483 	.db #0xFC
   091F FC                 2484 	.db #0xFC
   0920 FC                 2485 	.db #0xFC
   0921 FC                 2486 	.db #0xFC
   0922 FC                 2487 	.db #0xFC
   0923 FC                 2488 	.db #0xFC
   0924 FC                 2489 	.db #0xFC
   0925 FC                 2490 	.db #0xFC
   0926 FC                 2491 	.db #0xFC
   0927 FC                 2492 	.db #0xFC
   0928 FC                 2493 	.db #0xFC
   0929 FC                 2494 	.db #0xFC
   092A FC                 2495 	.db #0xFC
   092B FC                 2496 	.db #0xFC
   092C FC                 2497 	.db #0xFC
   092D FC                 2498 	.db #0xFC
   092E FC                 2499 	.db #0xFC
   092F FC                 2500 	.db #0xFC
   0930 FC                 2501 	.db #0xFC
   0931 FC                 2502 	.db #0xFC
   0932 FC                 2503 	.db #0xFC
   0933 FC                 2504 	.db #0xFC
   0934 FC                 2505 	.db #0xFC
   0935 FC                 2506 	.db #0xFC
   0936 FC                 2507 	.db #0xFC
   0937 FC                 2508 	.db #0xFC
   0938 FC                 2509 	.db #0xFC
   0939 FC                 2510 	.db #0xFC
   093A FC                 2511 	.db #0xFC
   093B FC                 2512 	.db #0xFC
   093C FC                 2513 	.db #0xFC
   093D FC                 2514 	.db #0xFC
   093E FC                 2515 	.db #0xFC
   093F FC                 2516 	.db #0xFC
   0940 FC                 2517 	.db #0xFC
   0941 FC                 2518 	.db #0xFC
   0942 FC                 2519 	.db #0xFC
   0943 FC                 2520 	.db #0xFC
   0944 FC                 2521 	.db #0xFC
   0945 FC                 2522 	.db #0xFC
   0946 FC                 2523 	.db #0xFC
   0947 FC                 2524 	.db #0xFC
   0948 FC                 2525 	.db #0xFC
   0949 FC                 2526 	.db #0xFC
   094A FC                 2527 	.db #0xFC
   094B FC                 2528 	.db #0xFC
   094C FC                 2529 	.db #0xFC
   094D FC                 2530 	.db #0xFC
   094E FC                 2531 	.db #0xFC
   094F FC                 2532 	.db #0xFC
   0950 FC                 2533 	.db #0xFC
   0951 FC                 2534 	.db #0xFC
   0952 FC                 2535 	.db #0xFC
   0953                    2536 _door3_tiles:
   0953 9C                 2537 	.db #0x9C
   0954 9C                 2538 	.db #0x9C
   0955 9C                 2539 	.db #0x9C
   0956 9C                 2540 	.db #0x9C
   0957 9C                 2541 	.db #0x9C
   0958 9C                 2542 	.db #0x9C
   0959 9C                 2543 	.db #0x9C
   095A 9C                 2544 	.db #0x9C
   095B 9C                 2545 	.db #0x9C
   095C 9C                 2546 	.db #0x9C
   095D 9C                 2547 	.db #0x9C
   095E 9C                 2548 	.db #0x9C
   095F 9D                 2549 	.db #0x9D
   0960 9D                 2550 	.db #0x9D
   0961 9D                 2551 	.db #0x9D
   0962 9D                 2552 	.db #0x9D
   0963 9D                 2553 	.db #0x9D
   0964 9D                 2554 	.db #0x9D
   0965 9D                 2555 	.db #0x9D
   0966 9D                 2556 	.db #0x9D
   0967 9D                 2557 	.db #0x9D
   0968 9D                 2558 	.db #0x9D
   0969 9D                 2559 	.db #0x9D
   096A 9D                 2560 	.db #0x9D
   096B 9E                 2561 	.db #0x9E
   096C 9E                 2562 	.db #0x9E
   096D 9E                 2563 	.db #0x9E
   096E 9E                 2564 	.db #0x9E
   096F 9E                 2565 	.db #0x9E
   0970 9E                 2566 	.db #0x9E
   0971 9E                 2567 	.db #0x9E
   0972 9E                 2568 	.db #0x9E
   0973 9E                 2569 	.db #0x9E
   0974 9E                 2570 	.db #0x9E
   0975 9E                 2571 	.db #0x9E
   0976 9E                 2572 	.db #0x9E
   0977 9C                 2573 	.db #0x9C
   0978 9C                 2574 	.db #0x9C
   0979 9C                 2575 	.db #0x9C
   097A 9C                 2576 	.db #0x9C
   097B 9C                 2577 	.db #0x9C
   097C 9C                 2578 	.db #0x9C
   097D 9C                 2579 	.db #0x9C
   097E 9C                 2580 	.db #0x9C
   097F 9C                 2581 	.db #0x9C
   0980 9C                 2582 	.db #0x9C
   0981 9C                 2583 	.db #0x9C
   0982 9C                 2584 	.db #0x9C
   0983 9D                 2585 	.db #0x9D
   0984 9D                 2586 	.db #0x9D
   0985 9D                 2587 	.db #0x9D
   0986 9D                 2588 	.db #0x9D
   0987 9D                 2589 	.db #0x9D
   0988 9D                 2590 	.db #0x9D
   0989 9D                 2591 	.db #0x9D
   098A 9D                 2592 	.db #0x9D
   098B 9D                 2593 	.db #0x9D
   098C 9D                 2594 	.db #0x9D
   098D 9D                 2595 	.db #0x9D
   098E 9D                 2596 	.db #0x9D
   098F 9F                 2597 	.db #0x9F
   0990 9F                 2598 	.db #0x9F
   0991 9F                 2599 	.db #0x9F
   0992 9F                 2600 	.db #0x9F
   0993 9F                 2601 	.db #0x9F
   0994 9F                 2602 	.db #0x9F
   0995 9F                 2603 	.db #0x9F
   0996 9F                 2604 	.db #0x9F
   0997 9F                 2605 	.db #0x9F
   0998 9F                 2606 	.db #0x9F
   0999 9F                 2607 	.db #0x9F
   099A 9F                 2608 	.db #0x9F
   099B FC                 2609 	.db #0xFC
   099C FC                 2610 	.db #0xFC
   099D FC                 2611 	.db #0xFC
   099E FC                 2612 	.db #0xFC
   099F FC                 2613 	.db #0xFC
   09A0 FC                 2614 	.db #0xFC
   09A1 FC                 2615 	.db #0xFC
   09A2 FC                 2616 	.db #0xFC
   09A3 FC                 2617 	.db #0xFC
   09A4 FC                 2618 	.db #0xFC
   09A5 FC                 2619 	.db #0xFC
   09A6 FC                 2620 	.db #0xFC
   09A7 FC                 2621 	.db #0xFC
   09A8 FC                 2622 	.db #0xFC
   09A9 FC                 2623 	.db #0xFC
   09AA FC                 2624 	.db #0xFC
   09AB FC                 2625 	.db #0xFC
   09AC FC                 2626 	.db #0xFC
   09AD FC                 2627 	.db #0xFC
   09AE FC                 2628 	.db #0xFC
   09AF FC                 2629 	.db #0xFC
   09B0 FC                 2630 	.db #0xFC
   09B1 FC                 2631 	.db #0xFC
   09B2 FC                 2632 	.db #0xFC
   09B3 FC                 2633 	.db #0xFC
   09B4 FC                 2634 	.db #0xFC
   09B5 FC                 2635 	.db #0xFC
   09B6 FC                 2636 	.db #0xFC
   09B7 FC                 2637 	.db #0xFC
   09B8 FC                 2638 	.db #0xFC
   09B9 FC                 2639 	.db #0xFC
   09BA FC                 2640 	.db #0xFC
   09BB FC                 2641 	.db #0xFC
   09BC FC                 2642 	.db #0xFC
   09BD FC                 2643 	.db #0xFC
   09BE FC                 2644 	.db #0xFC
   09BF FC                 2645 	.db #0xFC
   09C0 FC                 2646 	.db #0xFC
   09C1 FC                 2647 	.db #0xFC
   09C2 FC                 2648 	.db #0xFC
   09C3 FC                 2649 	.db #0xFC
   09C4 FC                 2650 	.db #0xFC
   09C5 FC                 2651 	.db #0xFC
   09C6 FC                 2652 	.db #0xFC
   09C7 FC                 2653 	.db #0xFC
   09C8 FC                 2654 	.db #0xFC
   09C9 FC                 2655 	.db #0xFC
   09CA FC                 2656 	.db #0xFC
   09CB FC                 2657 	.db #0xFC
   09CC FC                 2658 	.db #0xFC
   09CD FC                 2659 	.db #0xFC
   09CE FC                 2660 	.db #0xFC
   09CF FC                 2661 	.db #0xFC
   09D0 FC                 2662 	.db #0xFC
   09D1 FC                 2663 	.db #0xFC
   09D2 FC                 2664 	.db #0xFC
   09D3 FC                 2665 	.db #0xFC
   09D4 FC                 2666 	.db #0xFC
   09D5 FC                 2667 	.db #0xFC
   09D6 FC                 2668 	.db #0xFC
   09D7                    2669 _door4_tiles:
   09D7 95                 2670 	.db #0x95
   09D8 95                 2671 	.db #0x95
   09D9 95                 2672 	.db #0x95
   09DA 95                 2673 	.db #0x95
   09DB 95                 2674 	.db #0x95
   09DC 95                 2675 	.db #0x95
   09DD 95                 2676 	.db #0x95
   09DE 95                 2677 	.db #0x95
   09DF 95                 2678 	.db #0x95
   09E0 95                 2679 	.db #0x95
   09E1 95                 2680 	.db #0x95
   09E2 95                 2681 	.db #0x95
   09E3 96                 2682 	.db #0x96
   09E4 96                 2683 	.db #0x96
   09E5 96                 2684 	.db #0x96
   09E6 96                 2685 	.db #0x96
   09E7 96                 2686 	.db #0x96
   09E8 96                 2687 	.db #0x96
   09E9 96                 2688 	.db #0x96
   09EA 96                 2689 	.db #0x96
   09EB 96                 2690 	.db #0x96
   09EC 96                 2691 	.db #0x96
   09ED 96                 2692 	.db #0x96
   09EE 96                 2693 	.db #0x96
   09EF 97                 2694 	.db #0x97
   09F0 97                 2695 	.db #0x97
   09F1 97                 2696 	.db #0x97
   09F2 97                 2697 	.db #0x97
   09F3 97                 2698 	.db #0x97
   09F4 97                 2699 	.db #0x97
   09F5 97                 2700 	.db #0x97
   09F6 97                 2701 	.db #0x97
   09F7 97                 2702 	.db #0x97
   09F8 97                 2703 	.db #0x97
   09F9 97                 2704 	.db #0x97
   09FA 97                 2705 	.db #0x97
   09FB 95                 2706 	.db #0x95
   09FC 95                 2707 	.db #0x95
   09FD 95                 2708 	.db #0x95
   09FE 95                 2709 	.db #0x95
   09FF 95                 2710 	.db #0x95
   0A00 95                 2711 	.db #0x95
   0A01 95                 2712 	.db #0x95
   0A02 95                 2713 	.db #0x95
   0A03 95                 2714 	.db #0x95
   0A04 95                 2715 	.db #0x95
   0A05 95                 2716 	.db #0x95
   0A06 95                 2717 	.db #0x95
   0A07 96                 2718 	.db #0x96
   0A08 96                 2719 	.db #0x96
   0A09 96                 2720 	.db #0x96
   0A0A 96                 2721 	.db #0x96
   0A0B 96                 2722 	.db #0x96
   0A0C 96                 2723 	.db #0x96
   0A0D 96                 2724 	.db #0x96
   0A0E 96                 2725 	.db #0x96
   0A0F 96                 2726 	.db #0x96
   0A10 96                 2727 	.db #0x96
   0A11 96                 2728 	.db #0x96
   0A12 96                 2729 	.db #0x96
   0A13 A0                 2730 	.db #0xA0
   0A14 A0                 2731 	.db #0xA0
   0A15 A0                 2732 	.db #0xA0
   0A16 A0                 2733 	.db #0xA0
   0A17 A0                 2734 	.db #0xA0
   0A18 A0                 2735 	.db #0xA0
   0A19 A0                 2736 	.db #0xA0
   0A1A A0                 2737 	.db #0xA0
   0A1B A0                 2738 	.db #0xA0
   0A1C A0                 2739 	.db #0xA0
   0A1D A0                 2740 	.db #0xA0
   0A1E A0                 2741 	.db #0xA0
   0A1F FC                 2742 	.db #0xFC
   0A20 FC                 2743 	.db #0xFC
   0A21 FC                 2744 	.db #0xFC
   0A22 FC                 2745 	.db #0xFC
   0A23 FC                 2746 	.db #0xFC
   0A24 FC                 2747 	.db #0xFC
   0A25 FC                 2748 	.db #0xFC
   0A26 FC                 2749 	.db #0xFC
   0A27 FC                 2750 	.db #0xFC
   0A28 FC                 2751 	.db #0xFC
   0A29 FC                 2752 	.db #0xFC
   0A2A FC                 2753 	.db #0xFC
   0A2B FC                 2754 	.db #0xFC
   0A2C FC                 2755 	.db #0xFC
   0A2D FC                 2756 	.db #0xFC
   0A2E FC                 2757 	.db #0xFC
   0A2F FC                 2758 	.db #0xFC
   0A30 FC                 2759 	.db #0xFC
   0A31 FC                 2760 	.db #0xFC
   0A32 FC                 2761 	.db #0xFC
   0A33 FC                 2762 	.db #0xFC
   0A34 FC                 2763 	.db #0xFC
   0A35 FC                 2764 	.db #0xFC
   0A36 FC                 2765 	.db #0xFC
   0A37 FC                 2766 	.db #0xFC
   0A38 FC                 2767 	.db #0xFC
   0A39 FC                 2768 	.db #0xFC
   0A3A FC                 2769 	.db #0xFC
   0A3B FC                 2770 	.db #0xFC
   0A3C FC                 2771 	.db #0xFC
   0A3D FC                 2772 	.db #0xFC
   0A3E FC                 2773 	.db #0xFC
   0A3F FC                 2774 	.db #0xFC
   0A40 FC                 2775 	.db #0xFC
   0A41 FC                 2776 	.db #0xFC
   0A42 FC                 2777 	.db #0xFC
   0A43 FC                 2778 	.db #0xFC
   0A44 FC                 2779 	.db #0xFC
   0A45 FC                 2780 	.db #0xFC
   0A46 FC                 2781 	.db #0xFC
   0A47 FC                 2782 	.db #0xFC
   0A48 FC                 2783 	.db #0xFC
   0A49 FC                 2784 	.db #0xFC
   0A4A FC                 2785 	.db #0xFC
   0A4B FC                 2786 	.db #0xFC
   0A4C FC                 2787 	.db #0xFC
   0A4D FC                 2788 	.db #0xFC
   0A4E FC                 2789 	.db #0xFC
   0A4F FC                 2790 	.db #0xFC
   0A50 FC                 2791 	.db #0xFC
   0A51 FC                 2792 	.db #0xFC
   0A52 FC                 2793 	.db #0xFC
   0A53 FC                 2794 	.db #0xFC
   0A54 FC                 2795 	.db #0xFC
   0A55 FC                 2796 	.db #0xFC
   0A56 FC                 2797 	.db #0xFC
   0A57 FC                 2798 	.db #0xFC
   0A58 FC                 2799 	.db #0xFC
   0A59 FC                 2800 	.db #0xFC
   0A5A FC                 2801 	.db #0xFC
   0A5B                    2802 _film:
   0A5B 3F 08              2803 	.dw (_door1_tiles + 0)
   0A5D CF 08              2804 	.dw (_door2_tiles + 0)
   0A5F 53 09              2805 	.dw (_door3_tiles + 0)
   0A61 D7 09              2806 	.dw (_door4_tiles + 0)
   0A63 4B 08              2807 	.dw (_door1_tiles + 12)
   0A65 DB 08              2808 	.dw (_door2_tiles + 12)
   0A67 5F 09              2809 	.dw (_door3_tiles + 12)
   0A69 E3 09              2810 	.dw (_door4_tiles + 12)
   0A6B 57 08              2811 	.dw (_door1_tiles + 24)
   0A6D E7 08              2812 	.dw (_door2_tiles + 24)
   0A6F 6B 09              2813 	.dw (_door3_tiles + 24)
   0A71 EF 09              2814 	.dw (_door4_tiles + 24)
   0A73 63 08              2815 	.dw (_door1_tiles + 36)
   0A75 F3 08              2816 	.dw (_door2_tiles + 36)
   0A77 77 09              2817 	.dw (_door3_tiles + 36)
   0A79 FB 09              2818 	.dw (_door4_tiles + 36)
   0A7B 6F 08              2819 	.dw (_door1_tiles + 48)
   0A7D FF 08              2820 	.dw (_door2_tiles + 48)
   0A7F 83 09              2821 	.dw (_door3_tiles + 48)
   0A81 07 0A              2822 	.dw (_door4_tiles + 48)
   0A83 7B 08              2823 	.dw (_door1_tiles + 60)
   0A85 0B 09              2824 	.dw (_door2_tiles + 60)
   0A87 8F 09              2825 	.dw (_door3_tiles + 60)
   0A89 13 0A              2826 	.dw (_door4_tiles + 60)
   0A8B 87 08              2827 	.dw (_door1_tiles + 72)
                           2828 ;	galaxy.c 414
                           2829 ;	genLabel
                           2830 ;	genFunction
                           2831 ;	---------------------------------
                           2832 ; Function scroll
                           2833 ; ---------------------------------
   0A8D                    2834 ___scroll_start:
   0A8D                    2835 _scroll:
   0A8D E8 F7              2836 	lda	sp,-9(sp)
                           2837 ;	galaxy.c 417
                           2838 ;	genPointerGet
   0A8F 11 05 00           2839 	ld	de,#_bposx
   0A92 1A                 2840 	ld	a,(de)
   0A93 4F                 2841 	ld	c,a
   0A94 13                 2842 	inc	de
   0A95 1A                 2843 	ld	a,(de)
   0A96 47                 2844 	ld	b,a
                           2845 ;	genPointerGet
                           2846 ;	AOP_STK for _scroll_sloc0_1_0
   0A97 11 09 00           2847 	ld	de,#_bspx
   0A9A 1A                 2848 	ld	a,(de)
   0A9B F8 07              2849 	lda	hl,7(sp)
   0A9D 77                 2850 	ld	(hl),a
   0A9E 13                 2851 	inc	de
   0A9F 1A                 2852 	ld	a,(de)
   0AA0 23                 2853 	inc	hl
                           2854 ;	genPlus
                           2855 ;	AOP_STK for _scroll_sloc0_1_0
                           2856 ;	Can't optimise plus by inc, falling back to the normal way
   0AA1 32                 2857 	ld      (hl-),a
   0AA2 2A                 2858 	ld	a,(hl+)
   0AA3 66                 2859 	ld	h,(hl)
   0AA4 6F                 2860 	ld	l,a
   0AA5 09                 2861 	add	hl,bc
   0AA6 4D                 2862 	ld	c,l
   0AA7 44                 2863 	ld	b,h
                           2864 ;	genAssign (pointer)
   0AA8 11 05 00           2865 	ld	de,#_bposx
   0AAB 79                 2866 	ld	a,c
   0AAC 12                 2867 	ld	(de),a
   0AAD 13                 2868 	inc	de
   0AAE 78                 2869 	ld	a,b
   0AAF 12                 2870 	ld	(de),a
                           2871 ;	galaxy.c 418
                           2872 ;	genPointerGet
   0AB0 11 07 00           2873 	ld	de,#_bposy
   0AB3 1A                 2874 	ld	a,(de)
   0AB4 4F                 2875 	ld	c,a
   0AB5 13                 2876 	inc	de
   0AB6 1A                 2877 	ld	a,(de)
   0AB7 47                 2878 	ld	b,a
                           2879 ;	genPointerGet
                           2880 ;	AOP_STK for _scroll_sloc0_1_0
   0AB8 11 0B 00           2881 	ld	de,#_bspy
   0ABB 1A                 2882 	ld	a,(de)
   0ABC F8 07              2883 	lda	hl,7(sp)
   0ABE 77                 2884 	ld	(hl),a
   0ABF 13                 2885 	inc	de
   0AC0 1A                 2886 	ld	a,(de)
   0AC1 23                 2887 	inc	hl
                           2888 ;	genPlus
                           2889 ;	AOP_STK for _scroll_sloc0_1_0
                           2890 ;	Can't optimise plus by inc, falling back to the normal way
   0AC2 32                 2891 	ld      (hl-),a
   0AC3 2A                 2892 	ld	a,(hl+)
   0AC4 66                 2893 	ld	h,(hl)
   0AC5 6F                 2894 	ld	l,a
   0AC6 09                 2895 	add	hl,bc
   0AC7 4D                 2896 	ld	c,l
   0AC8 44                 2897 	ld	b,h
                           2898 ;	genAssign (pointer)
   0AC9 11 07 00           2899 	ld	de,#_bposy
   0ACC 79                 2900 	ld	a,c
   0ACD 12                 2901 	ld	(de),a
   0ACE 13                 2902 	inc	de
   0ACF 78                 2903 	ld	a,b
   0AD0 12                 2904 	ld	(de),a
                           2905 ;	galaxy.c 419
                           2906 ;	genAssign
   0AD1 01 43 FF           2907 	ld	bc,#0xFF43
                           2908 ;	genPlus
                           2909 ;	AOP_STK for _scroll_sloc0_1_0
                           2910 ;	genPlusIncr
                           2911 ;	Can't optimise plus by inc, falling back to the normal way
   0AD4 11 05 00           2912 	ld	de,#_bposx
   0AD7 21 01 00           2913 	ld	hl,#0x0001
   0ADA 19                 2914 	add	hl,de
   0ADB 7D                 2915 	ld	a,l
   0ADC 54                 2916 	ld	d,h
   0ADD F8 07              2917 	lda	hl,7(sp)
                           2918 ;	genPointerGet
                           2919 ;	AOP_STK for _scroll_sloc0_1_0
   0ADF 22                 2920 	ld	(hl+),a
   0AE0 72                 2921 	ld	(hl),d
   0AE1 5F                 2922 	ld	e,a
   0AE2 1A                 2923 	ld	a,(de)
                           2924 ;	genAssign (pointer)
   0AE3 02                 2925 	ld	(bc),a
                           2926 ;	galaxy.c 420
                           2927 ;	genAssign
   0AE4 01 42 FF           2928 	ld	bc,#0xFF42
                           2929 ;	genPlus
                           2930 ;	AOP_STK for _scroll_sloc0_1_0
                           2931 ;	genPlusIncr
                           2932 ;	Can't optimise plus by inc, falling back to the normal way
   0AE7 11 07 00           2933 	ld	de,#_bposy
   0AEA 21 01 00           2934 	ld	hl,#0x0001
   0AED 19                 2935 	add	hl,de
   0AEE 7D                 2936 	ld	a,l
   0AEF 54                 2937 	ld	d,h
   0AF0 F8 07              2938 	lda	hl,7(sp)
                           2939 ;	genPointerGet
                           2940 ;	AOP_STK for _scroll_sloc0_1_0
   0AF2 22                 2941 	ld	(hl+),a
   0AF3 72                 2942 	ld	(hl),d
   0AF4 5F                 2943 	ld	e,a
   0AF5 1A                 2944 	ld	a,(de)
                           2945 ;	genAssign (pointer)
   0AF6 02                 2946 	ld	(bc),a
                           2947 ;	galaxy.c 423
                           2948 ;	genPointerGet
   0AF7 11 0D 00           2949 	ld	de,#_wposx
   0AFA 1A                 2950 	ld	a,(de)
   0AFB 4F                 2951 	ld	c,a
   0AFC 13                 2952 	inc	de
   0AFD 1A                 2953 	ld	a,(de)
   0AFE 47                 2954 	ld	b,a
                           2955 ;	genPointerGet
                           2956 ;	AOP_STK for _scroll_sloc0_1_0
   0AFF 11 11 00           2957 	ld	de,#_wspx
   0B02 1A                 2958 	ld	a,(de)
   0B03 2B                 2959 	dec	hl
   0B04 77                 2960 	ld	(hl),a
   0B05 13                 2961 	inc	de
   0B06 1A                 2962 	ld	a,(de)
   0B07 23                 2963 	inc	hl
                           2964 ;	genPlus
                           2965 ;	AOP_STK for _scroll_sloc0_1_0
                           2966 ;	Can't optimise plus by inc, falling back to the normal way
   0B08 32                 2967 	ld      (hl-),a
   0B09 2A                 2968 	ld	a,(hl+)
   0B0A 66                 2969 	ld	h,(hl)
   0B0B 6F                 2970 	ld	l,a
   0B0C 09                 2971 	add	hl,bc
   0B0D 4D                 2972 	ld	c,l
   0B0E 44                 2973 	ld	b,h
                           2974 ;	genAssign (pointer)
   0B0F 11 0D 00           2975 	ld	de,#_wposx
   0B12 79                 2976 	ld	a,c
   0B13 12                 2977 	ld	(de),a
   0B14 13                 2978 	inc	de
   0B15 78                 2979 	ld	a,b
   0B16 12                 2980 	ld	(de),a
                           2981 ;	galaxy.c 424
                           2982 ;	genPointerGet
   0B17 11 0F 00           2983 	ld	de,#_wposy
   0B1A 1A                 2984 	ld	a,(de)
   0B1B 4F                 2985 	ld	c,a
   0B1C 13                 2986 	inc	de
   0B1D 1A                 2987 	ld	a,(de)
   0B1E 47                 2988 	ld	b,a
                           2989 ;	genPointerGet
                           2990 ;	AOP_STK for _scroll_sloc1_1_0
   0B1F 11 13 00           2991 	ld	de,#_wspy
   0B22 1A                 2992 	ld	a,(de)
   0B23 F8 05              2993 	lda	hl,5(sp)
   0B25 77                 2994 	ld	(hl),a
   0B26 13                 2995 	inc	de
   0B27 1A                 2996 	ld	a,(de)
   0B28 23                 2997 	inc	hl
                           2998 ;	genPlus
                           2999 ;	AOP_STK for _scroll_sloc1_1_0
                           3000 ;	Can't optimise plus by inc, falling back to the normal way
   0B29 32                 3001 	ld      (hl-),a
   0B2A 2A                 3002 	ld	a,(hl+)
   0B2B 66                 3003 	ld	h,(hl)
   0B2C 6F                 3004 	ld	l,a
   0B2D 09                 3005 	add	hl,bc
   0B2E 4D                 3006 	ld	c,l
   0B2F 44                 3007 	ld	b,h
                           3008 ;	genAssign (pointer)
   0B30 11 0F 00           3009 	ld	de,#_wposy
   0B33 79                 3010 	ld	a,c
   0B34 12                 3011 	ld	(de),a
   0B35 13                 3012 	inc	de
   0B36 78                 3013 	ld	a,b
   0B37 12                 3014 	ld	(de),a
                           3015 ;	galaxy.c 426
                           3016 ;	genPlus
                           3017 ;	genPlusIncr
   0B38 01 0E 00           3018 	ld	bc,#_wposx + 1
                           3019 ;	genPointerGet
                           3020 ;	AOP_STK for _scroll_sloc2_1_0
   0B3B 0A                 3021 	ld	a,(bc)
   0B3C F8 04              3022 	lda	hl,4(sp)
                           3023 ;	genCmpLt
                           3024 ;	AOP_STK for _scroll_sloc2_1_0
   0B3E 77                 3025 	ld      (hl),a
   0B3F 7F                 3026 	ld      a,a
   0B40 FE A6              3027 	cp	#0xA6
   0B42 DA 6D 0B           3028 	jp	c,00104$
                           3029 ;	galaxy.c 427
                           3030 ;	genAssign (pointer)
   0B45 3E A6              3031 	ld	a,#0xA6
   0B47 02                 3032 	ld	(bc),a
                           3033 ;	galaxy.c 429
                           3034 ;	genAssign
                           3035 ;	AOP_STK for _scroll_sloc0_1_0
                           3036 ;	AOP_STK for _scroll_sloc3_1_0
   0B48 F8 07              3037 	lda	hl,7(sp)
   0B4A 2A                 3038 	ld	a,(hl+)
   0B4B 5E                 3039 	ld	e,(hl)
   0B4C F8 02              3040 	lda	hl,2(sp)
   0B4E 22                 3041 	ld	(hl+),a
   0B4F 73                 3042 	ld	(hl),e
                           3043 ;	genUminus
                           3044 ;	AOP_STK for _scroll_sloc3_1_0
                           3045 ;	AOP_STK for _scroll_sloc4_1_0
   0B50 AF                 3046 	xor	a,a
   0B51 2B                 3047 	dec	hl
   0B52 3E 00              3048 	ld	a,#0x00
   0B54 9E                 3049 	sbc	a,(hl)
   0B55 2B                 3050 	dec	hl
   0B56 2B                 3051 	dec	hl
   0B57 77                 3052 	ld	(hl),a
   0B58 F8 03              3053 	lda	hl,3(sp)
   0B5A 3E 00              3054 	ld	a,#0x00
   0B5C 9E                 3055 	sbc	a,(hl)
   0B5D 2B                 3056 	dec	hl
   0B5E 2B                 3057 	dec	hl
   0B5F 77                 3058 	ld	(hl),a
                           3059 ;	genAssign (pointer)
                           3060 ;	AOP_STK for _scroll_sloc4_1_0
   0B60 11 11 00           3061 	ld	de,#_wspx
   0B63 2B                 3062 	dec	hl
   0B64 7E                 3063 	ld	a,(hl)
   0B65 12                 3064 	ld	(de),a
   0B66 13                 3065 	inc	de
   0B67 23                 3066 	inc	hl
   0B68 7E                 3067 	ld	a,(hl)
   0B69 12                 3068 	ld	(de),a
                           3069 ;	genGoto
   0B6A C3 9A 0B           3070 	jp	00105$
                           3071 ;	genLabel
   0B6D                    3072 00104$:
                           3073 ;	galaxy.c 430
                           3074 ;	genPointerGet
                           3075 ;	AOP_STK for _scroll_sloc4_1_0
   0B6D 0A                 3076 	ld	a,(bc)
   0B6E F8 00              3077 	lda	hl,0(sp)
   0B70 77                 3078 	ld	(hl),a
                           3079 ;	genCmpGt
                           3080 ;	AOP_STK for _scroll_sloc4_1_0
   0B71 3E 27              3081 	ld	a,#0x27
   0B73 96                 3082 	sub	a,(hl)
   0B74 DA 9A 0B           3083 	jp	c,00105$
                           3084 ;	galaxy.c 431
                           3085 ;	genAssign (pointer)
   0B77 3E 27              3086 	ld	a,#0x27
   0B79 02                 3087 	ld	(bc),a
                           3088 ;	galaxy.c 433
                           3089 ;	genAssign
                           3090 ;	AOP_STK for _scroll_sloc0_1_0
                           3091 ;	AOP_STK for _scroll_sloc4_1_0
   0B7A F8 07              3092 	lda	hl,7(sp)
   0B7C 2A                 3093 	ld	a,(hl+)
   0B7D 5E                 3094 	ld	e,(hl)
   0B7E F8 00              3095 	lda	hl,0(sp)
   0B80 22                 3096 	ld	(hl+),a
   0B81 73                 3097 	ld	(hl),e
                           3098 ;	genUminus
                           3099 ;	AOP_STK for _scroll_sloc4_1_0
                           3100 ;	AOP_STK for _scroll_sloc3_1_0
   0B82 AF                 3101 	xor	a,a
   0B83 2B                 3102 	dec	hl
   0B84 3E 00              3103 	ld	a,#0x00
   0B86 9E                 3104 	sbc	a,(hl)
   0B87 23                 3105 	inc	hl
   0B88 23                 3106 	inc	hl
   0B89 32                 3107 	ld      (hl-),a
   0B8A 3E 00              3108 	ld	a,#0x00
   0B8C 9E                 3109 	sbc	a,(hl)
   0B8D 23                 3110 	inc	hl
   0B8E 23                 3111 	inc	hl
   0B8F 77                 3112 	ld	(hl),a
                           3113 ;	genAssign (pointer)
                           3114 ;	AOP_STK for _scroll_sloc3_1_0
   0B90 11 11 00           3115 	ld	de,#_wspx
   0B93 2B                 3116 	dec	hl
   0B94 7E                 3117 	ld	a,(hl)
   0B95 12                 3118 	ld	(de),a
   0B96 13                 3119 	inc	de
   0B97 23                 3120 	inc	hl
   0B98 7E                 3121 	ld	a,(hl)
   0B99 12                 3122 	ld	(de),a
                           3123 ;	genLabel
   0B9A                    3124 00105$:
                           3125 ;	galaxy.c 435
                           3126 ;	genAssign
                           3127 ;	AOP_STK for _scroll_sloc4_1_0
   0B9A F8 00              3128 	lda	hl,0(sp)
   0B9C 36 4B              3129 	ld	(hl),#0x4B
   0B9E 23                 3130 	inc	hl
   0B9F 36 FF              3131 	ld	(hl),#0xFF
                           3132 ;	genPointerGet
   0BA1 0A                 3133 	ld	a,(bc)
                           3134 ;	genAssign (pointer)
                           3135 ;	AOP_STK for _scroll_sloc4_1_0
   0BA2 2B                 3136 	dec	hl
   0BA3 5E                 3137 	ld	e,(hl)
   0BA4 23                 3138 	inc	hl
   0BA5 56                 3139 	ld	d,(hl)
   0BA6 12                 3140 	ld	(de),a
                           3141 ;	galaxy.c 437
                           3142 ;	genPlus
                           3143 ;	genPlusIncr
   0BA7 01 10 00           3144 	ld	bc,#_wposy + 1
                           3145 ;	genPointerGet
                           3146 ;	AOP_STK for _scroll_sloc4_1_0
   0BAA 0A                 3147 	ld	a,(bc)
   0BAB 2B                 3148 	dec	hl
                           3149 ;	genCmpLt
                           3150 ;	AOP_STK for _scroll_sloc4_1_0
   0BAC 77                 3151 	ld      (hl),a
   0BAD 7F                 3152 	ld      a,a
   0BAE FE 8F              3153 	cp	#0x8F
   0BB0 DA D9 0B           3154 	jp	c,00109$
                           3155 ;	galaxy.c 438
                           3156 ;	genAssign (pointer)
   0BB3 3E 8F              3157 	ld	a,#0x8F
   0BB5 02                 3158 	ld	(bc),a
                           3159 ;	galaxy.c 440
                           3160 ;	genAssign
                           3161 ;	AOP_STK for _scroll_sloc1_1_0
                           3162 ;	AOP_STK for _scroll_sloc4_1_0
   0BB6 F8 05              3163 	lda	hl,5(sp)
   0BB8 2A                 3164 	ld	a,(hl+)
   0BB9 5E                 3165 	ld	e,(hl)
   0BBA F8 00              3166 	lda	hl,0(sp)
   0BBC 22                 3167 	ld	(hl+),a
   0BBD 73                 3168 	ld	(hl),e
                           3169 ;	genUminus
                           3170 ;	AOP_STK for _scroll_sloc4_1_0
                           3171 ;	AOP_STK for _scroll_sloc3_1_0
   0BBE AF                 3172 	xor	a,a
   0BBF 2B                 3173 	dec	hl
   0BC0 3E 00              3174 	ld	a,#0x00
   0BC2 9E                 3175 	sbc	a,(hl)
   0BC3 23                 3176 	inc	hl
   0BC4 23                 3177 	inc	hl
   0BC5 32                 3178 	ld      (hl-),a
   0BC6 3E 00              3179 	ld	a,#0x00
   0BC8 9E                 3180 	sbc	a,(hl)
   0BC9 23                 3181 	inc	hl
   0BCA 23                 3182 	inc	hl
   0BCB 77                 3183 	ld	(hl),a
                           3184 ;	genAssign (pointer)
                           3185 ;	AOP_STK for _scroll_sloc3_1_0
   0BCC 11 13 00           3186 	ld	de,#_wspy
   0BCF 2B                 3187 	dec	hl
   0BD0 7E                 3188 	ld	a,(hl)
   0BD1 12                 3189 	ld	(de),a
   0BD2 13                 3190 	inc	de
   0BD3 23                 3191 	inc	hl
   0BD4 7E                 3192 	ld	a,(hl)
   0BD5 12                 3193 	ld	(de),a
                           3194 ;	genGoto
   0BD6 C3 06 0C           3195 	jp	00110$
                           3196 ;	genLabel
   0BD9                    3197 00109$:
                           3198 ;	galaxy.c 441
                           3199 ;	genPointerGet
                           3200 ;	AOP_STK for _scroll_sloc4_1_0
   0BD9 0A                 3201 	ld	a,(bc)
   0BDA F8 00              3202 	lda	hl,0(sp)
   0BDC 77                 3203 	ld	(hl),a
                           3204 ;	genCmpGt
                           3205 ;	AOP_STK for _scroll_sloc4_1_0
   0BDD 3E 40              3206 	ld	a,#0x40
   0BDF 96                 3207 	sub	a,(hl)
   0BE0 DA 06 0C           3208 	jp	c,00110$
                           3209 ;	galaxy.c 442
                           3210 ;	genAssign (pointer)
   0BE3 3E 40              3211 	ld	a,#0x40
   0BE5 02                 3212 	ld	(bc),a
                           3213 ;	galaxy.c 444
                           3214 ;	genAssign
                           3215 ;	AOP_STK for _scroll_sloc1_1_0
                           3216 ;	AOP_STK for _scroll_sloc4_1_0
   0BE6 F8 05              3217 	lda	hl,5(sp)
   0BE8 2A                 3218 	ld	a,(hl+)
   0BE9 5E                 3219 	ld	e,(hl)
   0BEA F8 00              3220 	lda	hl,0(sp)
   0BEC 22                 3221 	ld	(hl+),a
   0BED 73                 3222 	ld	(hl),e
                           3223 ;	genUminus
                           3224 ;	AOP_STK for _scroll_sloc4_1_0
                           3225 ;	AOP_STK for _scroll_sloc3_1_0
   0BEE AF                 3226 	xor	a,a
   0BEF 2B                 3227 	dec	hl
   0BF0 3E 00              3228 	ld	a,#0x00
   0BF2 9E                 3229 	sbc	a,(hl)
   0BF3 23                 3230 	inc	hl
   0BF4 23                 3231 	inc	hl
   0BF5 32                 3232 	ld      (hl-),a
   0BF6 3E 00              3233 	ld	a,#0x00
   0BF8 9E                 3234 	sbc	a,(hl)
   0BF9 23                 3235 	inc	hl
   0BFA 23                 3236 	inc	hl
   0BFB 77                 3237 	ld	(hl),a
                           3238 ;	genAssign (pointer)
                           3239 ;	AOP_STK for _scroll_sloc3_1_0
   0BFC 11 13 00           3240 	ld	de,#_wspy
   0BFF 2B                 3241 	dec	hl
   0C00 7E                 3242 	ld	a,(hl)
   0C01 12                 3243 	ld	(de),a
   0C02 13                 3244 	inc	de
   0C03 23                 3245 	inc	hl
   0C04 7E                 3246 	ld	a,(hl)
   0C05 12                 3247 	ld	(de),a
                           3248 ;	genLabel
   0C06                    3249 00110$:
                           3250 ;	galaxy.c 446
                           3251 ;	genAssign
                           3252 ;	AOP_STK for _scroll_sloc4_1_0
   0C06 F8 00              3253 	lda	hl,0(sp)
   0C08 36 4A              3254 	ld	(hl),#0x4A
   0C0A 23                 3255 	inc	hl
   0C0B 36 FF              3256 	ld	(hl),#0xFF
                           3257 ;	genPointerGet
   0C0D 0A                 3258 	ld	a,(bc)
                           3259 ;	genAssign (pointer)
                           3260 ;	AOP_STK for _scroll_sloc4_1_0
   0C0E 2B                 3261 	dec	hl
   0C0F 5E                 3262 	ld	e,(hl)
   0C10 23                 3263 	inc	hl
   0C11 56                 3264 	ld	d,(hl)
   0C12 12                 3265 	ld	(de),a
                           3266 ;	galaxy.c 449
                           3267 ;	genPointerGet
   0C13 11 15 00           3268 	ld	de,#_sposx
   0C16 1A                 3269 	ld	a,(de)
   0C17 4F                 3270 	ld	c,a
   0C18 13                 3271 	inc	de
   0C19 1A                 3272 	ld	a,(de)
   0C1A 47                 3273 	ld	b,a
                           3274 ;	genPointerGet
                           3275 ;	AOP_STK for _scroll_sloc4_1_0
   0C1B 11 19 00           3276 	ld	de,#_sspx
   0C1E 1A                 3277 	ld	a,(de)
   0C1F 2B                 3278 	dec	hl
   0C20 77                 3279 	ld	(hl),a
   0C21 13                 3280 	inc	de
   0C22 1A                 3281 	ld	a,(de)
   0C23 23                 3282 	inc	hl
                           3283 ;	genPlus
                           3284 ;	AOP_STK for _scroll_sloc4_1_0
                           3285 ;	Can't optimise plus by inc, falling back to the normal way
   0C24 32                 3286 	ld      (hl-),a
   0C25 2A                 3287 	ld	a,(hl+)
   0C26 66                 3288 	ld	h,(hl)
   0C27 6F                 3289 	ld	l,a
   0C28 09                 3290 	add	hl,bc
   0C29 4D                 3291 	ld	c,l
   0C2A 44                 3292 	ld	b,h
                           3293 ;	genAssign (pointer)
   0C2B 11 15 00           3294 	ld	de,#_sposx
   0C2E 79                 3295 	ld	a,c
   0C2F 12                 3296 	ld	(de),a
   0C30 13                 3297 	inc	de
   0C31 78                 3298 	ld	a,b
   0C32 12                 3299 	ld	(de),a
                           3300 ;	galaxy.c 450
                           3301 ;	genPointerGet
   0C33 11 17 00           3302 	ld	de,#_sposy
   0C36 1A                 3303 	ld	a,(de)
   0C37 4F                 3304 	ld	c,a
   0C38 13                 3305 	inc	de
   0C39 1A                 3306 	ld	a,(de)
   0C3A 47                 3307 	ld	b,a
                           3308 ;	genPointerGet
                           3309 ;	AOP_STK for _scroll_sloc4_1_0
   0C3B 11 1B 00           3310 	ld	de,#_sspy
   0C3E 1A                 3311 	ld	a,(de)
   0C3F F8 00              3312 	lda	hl,0(sp)
   0C41 77                 3313 	ld	(hl),a
   0C42 13                 3314 	inc	de
   0C43 1A                 3315 	ld	a,(de)
   0C44 23                 3316 	inc	hl
                           3317 ;	genPlus
                           3318 ;	AOP_STK for _scroll_sloc4_1_0
                           3319 ;	Can't optimise plus by inc, falling back to the normal way
   0C45 32                 3320 	ld      (hl-),a
   0C46 2A                 3321 	ld	a,(hl+)
   0C47 66                 3322 	ld	h,(hl)
   0C48 6F                 3323 	ld	l,a
   0C49 09                 3324 	add	hl,bc
   0C4A 4D                 3325 	ld	c,l
   0C4B 44                 3326 	ld	b,h
                           3327 ;	genAssign (pointer)
   0C4C 11 17 00           3328 	ld	de,#_sposy
   0C4F 79                 3329 	ld	a,c
   0C50 12                 3330 	ld	(de),a
   0C51 13                 3331 	inc	de
   0C52 78                 3332 	ld	a,b
   0C53 12                 3333 	ld	(de),a
                           3334 ;	galaxy.c 451
                           3335 ;	genCall
                           3336 ; _saveRegsForCall: sendSetSize: 0 deInUse: 0 bcInUse: 0 deSending: 0
   0C54 CD 54 0D           3337 	call	_place_sprite
                           3338 ;	genLabel
   0C57                    3339 00111$:
                           3340 ;	genEndFunction
   0C57 E8 09              3341 	lda	sp,9(sp)
   0C59 C9                 3342 	ret
   0C5A                    3343 ___scroll_end:
                           3344 ;	galaxy.c 455
                           3345 ;	genLabel
                           3346 ;	genFunction
                           3347 ;	---------------------------------
                           3348 ; Function door
                           3349 ; ---------------------------------
   0C5A                    3350 ___door_start:
   0C5A                    3351 _door:
                           3352 	
                           3353 ;	galaxy.c 457
                           3354 ;	genCmpEq
                           3355 ;	AOP_HL for _doorstate
                           3356 ; genCmpEq: left 1, right 1, result 0
   0C5A 21 01 00           3357 	ld	hl,#_doorstate
   0C5D 7E                 3358 	ld	a,(hl)
   0C5E FE 01              3359 	cp	a,#0x01
   0C60 C2 A4 0C           3360 	jp	nz,00108$
   0C63 18 03              3361 	jr	00117$
   0C65                    3362 00116$:
   0C65 C3 A4 0C           3363 	jp	00108$
   0C68                    3364 00117$:
                           3365 ;	galaxy.c 458
                           3366 ;	genPlus
                           3367 ;	AOP_HL for _doorpos
                           3368 ;	genPlusIncr
   0C68 21 02 00           3369 	ld	hl,#_doorpos
   0C6B 34                 3370 	inc	(hl)
                           3371 ;	galaxy.c 460
                           3372 ;	genCast
                           3373 ;	AOP_HL for _doorpos
   0C6C 4E                 3374 	ld	c,(hl)
   0C6D 06 00              3375 	ld	b,#0x00
                           3376 ;	genLeftShift
   0C6F CB 21              3377 	sla	c
   0C71 CB 10              3378 	rl	b
                           3379 ;	genPlus
                           3380 ;	Can't optimise plus by inc, falling back to the normal way
   0C73 21 5B 0A           3381 	ld	hl,#_film
   0C76 09                 3382 	add	hl,bc
   0C77 4D                 3383 	ld	c,l
   0C78 44                 3384 	ld	b,h
                           3385 ;	genPointerGet
   0C79 59                 3386 	ld	e,c
   0C7A 50                 3387 	ld	d,b
   0C7B 1A                 3388 	ld	a,(de)
   0C7C 4F                 3389 	ld	c,a
   0C7D 13                 3390 	inc	de
   0C7E 1A                 3391 	ld	a,(de)
   0C7F 47                 3392 	ld	b,a
                           3393 ;	genIpush
                           3394 ; _saveRegsForCall: sendSetSize: 0 deInUse: 0 bcInUse: 0 deSending: 0
   0C80 C5                 3395 	push	bc
                           3396 ;	genIpush
   0C81 21 0C 06           3397 	ld	hl,#0x060C
   0C84 E5                 3398 	push	hl
                           3399 ;	genIpush
   0C85 21 02 02           3400 	ld	hl,#0x0202
   0C88 E5                 3401 	push	hl
                           3402 ;	genCall
   0C89 CD 00 00           3403 	call	_set_win_tiles
   0C8C E8 06              3404 	lda	sp,6(sp)
                           3405 ;	galaxy.c 461
                           3406 ;	genCmpEq
                           3407 ;	AOP_HL for _doorpos
                           3408 ; genCmpEq: left 1, right 1, result 0
   0C8E 21 02 00           3409 	ld	hl,#_doorpos
   0C91 7E                 3410 	ld	a,(hl)
   0C92 FE 18              3411 	cp	a,#0x18
   0C94 C2 EA 0C           3412 	jp	nz,00110$
   0C97 18 03              3413 	jr	00121$
   0C99                    3414 00120$:
   0C99 C3 EA 0C           3415 	jp	00110$
   0C9C                    3416 00121$:
                           3417 ;	galaxy.c 462
                           3418 ;	genAssign
                           3419 ;	AOP_HL for _doorstate
   0C9C 21 01 00           3420 	ld	hl,#_doorstate
   0C9F 36 02              3421 	ld	(hl),#0x02
                           3422 ;	genGoto
   0CA1 C3 EA 0C           3423 	jp	00110$
                           3424 ;	genLabel
   0CA4                    3425 00108$:
                           3426 ;	galaxy.c 463
                           3427 ;	genCmpEq
                           3428 ;	AOP_HL for _doorstate
                           3429 ; genCmpEq: left 1, right 1, result 0
   0CA4 21 01 00           3430 	ld	hl,#_doorstate
   0CA7 7E                 3431 	ld	a,(hl)
   0CA8 FE 03              3432 	cp	a,#0x03
   0CAA C2 EA 0C           3433 	jp	nz,00110$
   0CAD 18 03              3434 	jr	00123$
   0CAF                    3435 00122$:
   0CAF C3 EA 0C           3436 	jp	00110$
   0CB2                    3437 00123$:
                           3438 ;	galaxy.c 464
                           3439 ;	genMinus
                           3440 ;	AOP_HL for _doorpos
   0CB2 21 02 00           3441 	ld	hl,#_doorpos
   0CB5 35                 3442 	dec	(hl)
                           3443 ;	galaxy.c 466
                           3444 ;	genCast
                           3445 ;	AOP_HL for _doorpos
   0CB6 4E                 3446 	ld	c,(hl)
   0CB7 06 00              3447 	ld	b,#0x00
                           3448 ;	genLeftShift
   0CB9 CB 21              3449 	sla	c
   0CBB CB 10              3450 	rl	b
                           3451 ;	genPlus
                           3452 ;	Can't optimise plus by inc, falling back to the normal way
   0CBD 21 5B 0A           3453 	ld	hl,#_film
   0CC0 09                 3454 	add	hl,bc
   0CC1 4D                 3455 	ld	c,l
   0CC2 44                 3456 	ld	b,h
                           3457 ;	genPointerGet
   0CC3 59                 3458 	ld	e,c
   0CC4 50                 3459 	ld	d,b
   0CC5 1A                 3460 	ld	a,(de)
   0CC6 4F                 3461 	ld	c,a
   0CC7 13                 3462 	inc	de
   0CC8 1A                 3463 	ld	a,(de)
   0CC9 47                 3464 	ld	b,a
                           3465 ;	genIpush
                           3466 ; _saveRegsForCall: sendSetSize: 0 deInUse: 0 bcInUse: 0 deSending: 0
   0CCA C5                 3467 	push	bc
                           3468 ;	genIpush
   0CCB 21 0C 06           3469 	ld	hl,#0x060C
   0CCE E5                 3470 	push	hl
                           3471 ;	genIpush
   0CCF 21 02 02           3472 	ld	hl,#0x0202
   0CD2 E5                 3473 	push	hl
                           3474 ;	genCall
   0CD3 CD 00 00           3475 	call	_set_win_tiles
   0CD6 E8 06              3476 	lda	sp,6(sp)
                           3477 ;	galaxy.c 467
                           3478 ;	genCmpEq
                           3479 ;	AOP_HL for _doorpos
                           3480 ; genCmpEq: left 1, right 1, result 0
   0CD8 21 02 00           3481 	ld	hl,#_doorpos
   0CDB 7E                 3482 	ld	a,(hl)
   0CDC B7                 3483 	or	a,a
   0CDD C2 EA 0C           3484 	jp	nz,00110$
   0CE0 18 03              3485 	jr	00127$
   0CE2                    3486 00126$:
   0CE2 C3 EA 0C           3487 	jp	00110$
   0CE5                    3488 00127$:
                           3489 ;	galaxy.c 468
                           3490 ;	genAssign
                           3491 ;	AOP_HL for _doorstate
   0CE5 21 01 00           3492 	ld	hl,#_doorstate
   0CE8 36 00              3493 	ld	(hl),#0x00
                           3494 ;	genLabel
   0CEA                    3495 00110$:
                           3496 ;	genEndFunction
                           3497 	
   0CEA C9                 3498 	ret
   0CEB                    3499 ___door_end:
                           3500 ;	galaxy.c 473
                           3501 ;	genLabel
                           3502 ;	genFunction
                           3503 ;	---------------------------------
                           3504 ; Function animate_sprite
                           3505 ; ---------------------------------
   0CEB                    3506 ___animate_sprite_start:
   0CEB                    3507 _animate_sprite:
                           3508 	
                           3509 ;	galaxy.c 475
                           3510 ;	genAnd
                           3511 ;	AOP_HL for _time
   0CEB 21 00 00           3512 	ld	hl,#_time
   0CEE 7E                 3513 	ld	a,(hl)
   0CEF E6 07              3514 	and	a,#0x07
                           3515 ;	genCmpEq
                           3516 ; genCmpEq: left 1, right 1, result 0
   0CF1 4F                 3517 	ld	c,a
   0CF2 B7                 3518 	or	a,a
   0CF3 C2 12 0D           3519 	jp	nz,00105$
   0CF6 18 03              3520 	jr	00110$
   0CF8                    3521 00109$:
   0CF8 C3 12 0D           3522 	jp	00105$
   0CFB                    3523 00110$:
                           3524 ;	galaxy.c 476
                           3525 ;	genPlus
                           3526 ;	AOP_HL for _sframe
                           3527 ;	genPlusIncr
   0CFB 21 04 00           3528 	ld	hl,#_sframe
   0CFE 34                 3529 	inc	(hl)
                           3530 ;	galaxy.c 477
                           3531 ;	genCmpEq
                           3532 ;	AOP_HL for _sframe
                           3533 ; genCmpEq: left 1, right 1, result 0
   0CFF 7E                 3534 	ld	a,(hl)
   0D00 FE 07              3535 	cp	a,#0x07
   0D02 C2 0F 0D           3536 	jp	nz,00102$
   0D05 18 03              3537 	jr	00112$
   0D07                    3538 00111$:
   0D07 C3 0F 0D           3539 	jp	00102$
   0D0A                    3540 00112$:
                           3541 ;	galaxy.c 478
                           3542 ;	genAssign
                           3543 ;	AOP_HL for _sframe
   0D0A 21 04 00           3544 	ld	hl,#_sframe
   0D0D 36 00              3545 	ld	(hl),#0x00
                           3546 ;	genLabel
   0D0F                    3547 00102$:
                           3548 ;	galaxy.c 479
                           3549 ;	genCall
                           3550 ; _saveRegsForCall: sendSetSize: 0 deInUse: 0 bcInUse: 0 deSending: 0
   0D0F CD 13 0D           3551 	call	_tile_sprite
                           3552 ;	genLabel
   0D12                    3553 00105$:
                           3554 ;	genEndFunction
                           3555 	
   0D12 C9                 3556 	ret
   0D13                    3557 ___animate_sprite_end:
                           3558 ;	galaxy.c 484
                           3559 ;	genLabel
                           3560 ;	genFunction
                           3561 ;	---------------------------------
                           3562 ; Function tile_sprite
                           3563 ; ---------------------------------
   0D13                    3564 ___tile_sprite_start:
   0D13                    3565 _tile_sprite:
   0D13 E8 FE              3566 	lda	sp,-2(sp)
                           3567 ;	galaxy.c 488
                           3568 ;	genLeftShift
                           3569 ;	AOP_HL for _sframe
   0D15 21 04 00           3570 	ld	hl,#_sframe
   0D18 7E                 3571 	ld	a,(hl)
   0D19 87                 3572 	add	a,a
   0D1A 4F                 3573 	ld	c,a
                           3574 ;	galaxy.c 489
                           3575 ;	genPlus
                           3576 ;	AOP_STK for _tile_sprite_sloc0_1_0
                           3577 ;	Can't optimise plus by inc, falling back to the normal way
   0D1B 11 91 07           3578 	ld	de,#_earth_tiles
   0D1E 69                 3579 	ld	l,c
   0D1F 26 00              3580 	ld	h,#0x00
   0D21 19                 3581 	add	hl,de
   0D22 7D                 3582 	ld	a,l
   0D23 54                 3583 	ld	d,h
   0D24 F8 00              3584 	lda	hl,0(sp)
                           3585 ;	genPointerGet
                           3586 ;	AOP_STK for _tile_sprite_sloc0_1_0
   0D26 22                 3587 	ld	(hl+),a
   0D27 72                 3588 	ld	(hl),d
   0D28 5F                 3589 	ld	e,a
   0D29 1A                 3590 	ld	a,(de)
   0D2A 47                 3591 	ld	b,a
                           3592 ;	genIpush
                           3593 ; _saveRegsForCall: sendSetSize: 0 deInUse: 0 bcInUse: 1 deSending: 0
   0D2B C5                 3594 	push	bc
   0D2C 78                 3595 	ld	a,b
   0D2D F5                 3596 	push	af
   0D2E 33                 3597 	inc	sp
                           3598 ;	genIpush
   0D2F 3E 00              3599 	ld	a,#0x00
   0D31 F5                 3600 	push	af
   0D32 33                 3601 	inc	sp
                           3602 ;	genCall
   0D33 CD 00 00           3603 	call	_set_sprite_tile
   0D36 E8 02              3604 	lda	sp,2(sp)
   0D38 E1                 3605 	pop	hl
   0D39 4D                 3606 	ld	c,l
                           3607 ;	galaxy.c 490
                           3608 ;	genPlus
                           3609 ;	genPlusIncr
                           3610 ; Removed redundent load
   0D3A 0C                 3611 	inc	c
                           3612 ;	genPlus
                           3613 ;	Can't optimise plus by inc, falling back to the normal way
   0D3B 3E 91              3614 	ld	a,#<_earth_tiles
   0D3D 81                 3615 	add	a,c
   0D3E 4F                 3616 	ld	c,a
   0D3F 3E 07              3617 	ld	a,#>_earth_tiles
   0D41 CE 00              3618 	adc	a,#0x00
   0D43 47                 3619 	ld	b,a
                           3620 ;	genPointerGet
   0D44 0A                 3621 	ld	a,(bc)
                           3622 ;	genIpush
                           3623 ; _saveRegsForCall: sendSetSize: 0 deInUse: 0 bcInUse: 0 deSending: 0
   0D45 4F                 3624 	ld	c,a
   0D46 F5                 3625 	push	af
   0D47 33                 3626 	inc	sp
                           3627 ;	genIpush
   0D48 3E 01              3628 	ld	a,#0x01
   0D4A F5                 3629 	push	af
   0D4B 33                 3630 	inc	sp
                           3631 ;	genCall
   0D4C CD 00 00           3632 	call	_set_sprite_tile
   0D4F E8 02              3633 	lda	sp,2(sp)
                           3634 ;	genLabel
   0D51                    3635 00101$:
                           3636 ;	genEndFunction
   0D51 E8 02              3637 	lda	sp,2(sp)
   0D53 C9                 3638 	ret
   0D54                    3639 ___tile_sprite_end:
                           3640 ;	galaxy.c 494
                           3641 ;	genLabel
                           3642 ;	genFunction
                           3643 ;	---------------------------------
                           3644 ; Function place_sprite
                           3645 ; ---------------------------------
   0D54                    3646 ___place_sprite_start:
   0D54                    3647 _place_sprite:
   0D54 E8 FC              3648 	lda	sp,-4(sp)
                           3649 ;	galaxy.c 496
                           3650 ;	genPlus
                           3651 ;	genPlusIncr
   0D56 01 18 00           3652 	ld	bc,#_sposy + 1
                           3653 ;	genPointerGet
                           3654 ;	AOP_STK for _place_sprite_sloc0_1_0
   0D59 0A                 3655 	ld	a,(bc)
   0D5A F8 03              3656 	lda	hl,3(sp)
   0D5C 77                 3657 	ld	(hl),a
                           3658 ;	genPlus
                           3659 ;	AOP_STK for _place_sprite_sloc1_1_0
                           3660 ;	genPlusIncr
                           3661 ;	Can't optimise plus by inc, falling back to the normal way
   0D5D 11 15 00           3662 	ld	de,#_sposx
   0D60 21 01 00           3663 	ld	hl,#0x0001
   0D63 19                 3664 	add	hl,de
   0D64 7D                 3665 	ld	a,l
   0D65 54                 3666 	ld	d,h
   0D66 F8 01              3667 	lda	hl,1(sp)
                           3668 ;	genPointerGet
                           3669 ;	AOP_STK for _place_sprite_sloc1_1_0
                           3670 ;	AOP_STK for _place_sprite_sloc2_1_0
   0D68 22                 3671 	ld	(hl+),a
   0D69 72                 3672 	ld	(hl),d
   0D6A 5F                 3673 	ld	e,a
   0D6B 1A                 3674 	ld	a,(de)
   0D6C 2B                 3675 	dec	hl
   0D6D 2B                 3676 	dec	hl
   0D6E 77                 3677 	ld	(hl),a
                           3678 ;	genIpush
                           3679 ; _saveRegsForCall: sendSetSize: 0 deInUse: 0 bcInUse: 1 deSending: 0
   0D6F C5                 3680 	push	bc
                           3681 ;	AOP_STK for _place_sprite_sloc0_1_0
   0D70 F8 05              3682 	lda	hl,5(sp)
   0D72 7E                 3683 	ld	a,(hl)
   0D73 F5                 3684 	push	af
   0D74 33                 3685 	inc	sp
                           3686 ;	genIpush
                           3687 ;	AOP_STK for _place_sprite_sloc2_1_0
   0D75 F8 03              3688 	lda	hl,3(sp)
   0D77 7E                 3689 	ld	a,(hl)
   0D78 F5                 3690 	push	af
   0D79 33                 3691 	inc	sp
                           3692 ;	genIpush
   0D7A 3E 00              3693 	ld	a,#0x00
   0D7C F5                 3694 	push	af
   0D7D 33                 3695 	inc	sp
                           3696 ;	genCall
   0D7E CD 00 00           3697 	call	_move_sprite
   0D81 E8 03              3698 	lda	sp,3(sp)
   0D83 C1                 3699 	pop	bc
                           3700 ;	galaxy.c 497
                           3701 ;	genPointerGet
   0D84 0A                 3702 	ld	a,(bc)
   0D85 4F                 3703 	ld	c,a
                           3704 ;	genPointerGet
                           3705 ;	AOP_STK for _place_sprite_sloc1_1_0
   0D86 F8 01              3706 	lda	hl,1(sp)
   0D88 5E                 3707 	ld	e,(hl)
   0D89 23                 3708 	inc	hl
   0D8A 56                 3709 	ld	d,(hl)
   0D8B 1A                 3710 	ld	a,(de)
                           3711 ;	genPlus
                           3712 ;	genPlusIncr
                           3713 ;	Can't optimise plus by inc, falling back to the normal way
   0D8C 47                 3714 	ld	b,a
   0D8D C6 08              3715 	add	a,#0x08
   0D8F 47                 3716 	ld	b,a
                           3717 ;	genIpush
                           3718 ; _saveRegsForCall: sendSetSize: 0 deInUse: 0 bcInUse: 0 deSending: 0
   0D90 79                 3719 	ld	a,c
   0D91 F5                 3720 	push	af
   0D92 33                 3721 	inc	sp
                           3722 ;	genIpush
   0D93 78                 3723 	ld	a,b
   0D94 F5                 3724 	push	af
   0D95 33                 3725 	inc	sp
                           3726 ;	genIpush
   0D96 3E 01              3727 	ld	a,#0x01
   0D98 F5                 3728 	push	af
   0D99 33                 3729 	inc	sp
                           3730 ;	genCall
   0D9A CD 00 00           3731 	call	_move_sprite
   0D9D E8 03              3732 	lda	sp,3(sp)
                           3733 ;	genLabel
   0D9F                    3734 00101$:
                           3735 ;	genEndFunction
   0D9F E8 04              3736 	lda	sp,4(sp)
   0DA1 C9                 3737 	ret
   0DA2                    3738 ___place_sprite_end:
                           3739 ;	galaxy.c 500
                           3740 ;	genLabel
                           3741 ;	genFunction
                           3742 ;	---------------------------------
                           3743 ; Function main
                           3744 ; ---------------------------------
   0DA2                    3745 ___main_start:
   0DA2                    3746 _main:
   0DA2 E8 FB              3747 	lda	sp,-5(sp)
                           3748 ;	galaxy.c 504
                           3749 ;	genCall
                           3750 ; _saveRegsForCall: sendSetSize: 0 deInUse: 0 bcInUse: 0 deSending: 0
   0DA4 CD 00 00           3751 	call	_disable_interrupts
                           3752 ;	galaxy.c 505
                           3753 ;	genCall
                           3754 ; _saveRegsForCall: sendSetSize: 0 deInUse: 0 bcInUse: 0 deSending: 0
   0DA7 CD 00 00           3755 	call	_display_off
                           3756 ;	galaxy.c 506
                           3757 ;	genAssign
   0DAA 01 40 FF           3758 	ld	bc,#0xFF40
                           3759 ;	genAssign (pointer)
   0DAD 3E 67              3760 	ld	a,#0x67
   0DAF 02                 3761 	ld	(bc),a
                           3762 ;	galaxy.c 518
                           3763 ;	genAssign
                           3764 ;	AOP_HL for _doorstate
   0DB0 21 01 00           3765 	ld	hl,#_doorstate
   0DB3 36 00              3766 	ld	(hl),#0x00
                           3767 ;	galaxy.c 521
                           3768 ;	genAssign
   0DB5 01 47 FF           3769 	ld	bc,#0xFF47
                           3770 ;	genAssign
                           3771 ;	AOP_STK for _main_sloc0_1_0
   0DB8 F8 02              3772 	lda	hl,2(sp)
   0DBA 36 48              3773 	ld	(hl),#0x48
   0DBC 23                 3774 	inc	hl
   0DBD 36 FF              3775 	ld	(hl),#0xFF
                           3776 ;	genAssign
                           3777 ;	AOP_STK for _main_sloc1_1_0
   0DBF F8 00              3778 	lda	hl,0(sp)
   0DC1 36 49              3779 	ld	(hl),#0x49
   0DC3 23                 3780 	inc	hl
   0DC4 36 FF              3781 	ld	(hl),#0xFF
                           3782 ;	genAssign (pointer)
                           3783 ;	AOP_STK for _main_sloc1_1_0
   0DC6 2B                 3784 	dec	hl
   0DC7 5E                 3785 	ld	e,(hl)
   0DC8 23                 3786 	inc	hl
   0DC9 56                 3787 	ld	d,(hl)
   0DCA 3E E4              3788 	ld	a,#0xE4
   0DCC 12                 3789 	ld	(de),a
                           3790 ;	genAssign (pointer)
                           3791 ;	AOP_STK for _main_sloc0_1_0
   0DCD 23                 3792 	inc	hl
   0DCE 5E                 3793 	ld	e,(hl)
   0DCF 23                 3794 	inc	hl
   0DD0 56                 3795 	ld	d,(hl)
   0DD1 3E E4              3796 	ld	a,#0xE4
   0DD3 12                 3797 	ld	(de),a
                           3798 ;	genAssign (pointer)
   0DD4 3E E4              3799 	ld	a,#0xE4
   0DD6 02                 3800 	ld	(bc),a
                           3801 ;	galaxy.c 524
                           3802 ;	genIpush
                           3803 ; _saveRegsForCall: sendSetSize: 0 deInUse: 0 bcInUse: 0 deSending: 0
   0DD7 21 71 00           3804 	ld	hl,#_std_data
   0DDA E5                 3805 	push	hl
                           3806 ;	genIpush
   0DDB 21 FC 04           3807 	ld	hl,#0x04FC
   0DDE E5                 3808 	push	hl
                           3809 ;	genCall
   0DDF CD 00 00           3810 	call	_set_bkg_data
   0DE2 E8 04              3811 	lda	sp,4(sp)
                           3812 ;	galaxy.c 525
                           3813 ;	genIpush
                           3814 ; _saveRegsForCall: sendSetSize: 0 deInUse: 0 bcInUse: 0 deSending: 0
   0DE4 21 81 04           3815 	ld	hl,#_bkg_data
   0DE7 E5                 3816 	push	hl
                           3817 ;	genIpush
   0DE8 21 00 2D           3818 	ld	hl,#0x2D00
   0DEB E5                 3819 	push	hl
                           3820 ;	genCall
   0DEC CD 00 00           3821 	call	_set_bkg_data
   0DEF E8 04              3822 	lda	sp,4(sp)
                           3823 ;	galaxy.c 532
                           3824 ;	genAssign
                           3825 ;	AOP_STK for _main_i_1_1
   0DF1 F8 04              3826 	lda	hl,4(sp)
   0DF3 36 00              3827 	ld	(hl),#0x00
                           3828 ;	genLabel
   0DF5                    3829 00147$:
                           3830 ;	genCmpLt
                           3831 ;	AOP_STK for _main_i_1_1
   0DF5 F8 04              3832 	lda	hl,4(sp)
   0DF7 7E                 3833 	ld	a,(hl)
   0DF8 FE 20              3834 	cp	#0x20
   0DFA D2 35 0E           3835 	jp	nc,00150$
                           3836 ;	galaxy.c 533
                           3837 ;	genAssign
   0DFD 06 00              3838 	ld	b,#0x00
                           3839 ;	genLabel
   0DFF                    3840 00143$:
                           3841 ;	genCmpLt
   0DFF 78                 3842 	ld	a,b
   0E00 FE 20              3843 	cp	#0x20
   0E02 3E 00              3844 	ld	a,#0x00
   0E04 17                 3845 	rla
   0E05 4F                 3846 	ld	c,a
                           3847 ;	genIfx
   0E06 AF                 3848 	xor	a,a
   0E07 B1                 3849 	or	a,c
   0E08 CA 2C 0E           3850 	jp	z,00149$
                           3851 ;	galaxy.c 534
                           3852 ;	genIpush
                           3853 ; _saveRegsForCall: sendSetSize: 0 deInUse: 0 bcInUse: 1 deSending: 0
   0E0B C5                 3854 	push	bc
   0E0C 21 51 07           3855 	ld	hl,#_bkg_tiles
   0E0F E5                 3856 	push	hl
                           3857 ;	genIpush
   0E10 21 08 08           3858 	ld	hl,#0x0808
   0E13 E5                 3859 	push	hl
                           3860 ;	genIpush
   0E14 78                 3861 	ld	a,b
   0E15 F5                 3862 	push	af
   0E16 33                 3863 	inc	sp
                           3864 ;	genIpush
                           3865 ;	AOP_STK for _main_i_1_1
   0E17 F8 0B              3866 	lda	hl,11(sp)
   0E19 7E                 3867 	ld	a,(hl)
   0E1A F5                 3868 	push	af
   0E1B 33                 3869 	inc	sp
                           3870 ;	genCall
   0E1C CD 00 00           3871 	call	_set_bkg_tiles
   0E1F E8 06              3872 	lda	sp,6(sp)
   0E21 C1                 3873 	pop	bc
                           3874 ;	galaxy.c 533
                           3875 ;	genPlus
                           3876 ;	AOP_STK for _main_sloc1_1_0
                           3877 ;	genPlusIncr
                           3878 ;	Can't optimise plus by inc, falling back to the normal way
   0E22 78                 3879 	ld	a,b
   0E23 C6 08              3880 	add	a,#0x08
   0E25 F8 00              3881 	lda	hl,0(sp)
                           3882 ;	genAssign
                           3883 ;	AOP_STK for _main_sloc1_1_0
   0E27 77                 3884 	ld      (hl),a
   0E28 47                 3885 	ld      b,a
                           3886 ;	genGoto
   0E29 C3 FF 0D           3887 	jp	00143$
                           3888 ;	genLabel
   0E2C                    3889 00149$:
                           3890 ;	galaxy.c 532
                           3891 ;	genPlus
                           3892 ;	AOP_STK for _main_i_1_1
                           3893 ;	genPlusIncr
                           3894 ;	Can't optimise plus by inc, falling back to the normal way
   0E2C F8 04              3895 	lda	hl,4(sp)
   0E2E 7E                 3896 	ld	a,(hl)
   0E2F C6 08              3897 	add	a,#0x08
   0E31 77                 3898 	ld	(hl),a
                           3899 ;	genGoto
   0E32 C3 F5 0D           3900 	jp	00147$
                           3901 ;	genLabel
   0E35                    3902 00150$:
                           3903 ;	galaxy.c 535
                           3904 ;	genAssign (pointer)
   0E35 11 05 00           3905 	ld	de,#_bposx
   0E38 3E 00              3906 	ld	a,#0x00
   0E3A 12                 3907 	ld	(de),a
   0E3B 13                 3908 	inc	de
   0E3C 3E 00              3909 	ld	a,#0x00
   0E3E 12                 3910 	ld	(de),a
                           3911 ;	galaxy.c 536
                           3912 ;	genAssign
   0E3F 01 43 FF           3913 	ld	bc,#0xFF43
                           3914 ;	genAssign (pointer)
   0E42 3E 00              3915 	ld	a,#0x00
   0E44 02                 3916 	ld	(bc),a
                           3917 ;	galaxy.c 537
                           3918 ;	genAssign (pointer)
   0E45 11 07 00           3919 	ld	de,#_bposy
   0E48 3E 00              3920 	ld	a,#0x00
   0E4A 12                 3921 	ld	(de),a
   0E4B 13                 3922 	inc	de
   0E4C 3E 00              3923 	ld	a,#0x00
   0E4E 12                 3924 	ld	(de),a
                           3925 ;	galaxy.c 538
                           3926 ;	genAssign
   0E4F 01 42 FF           3927 	ld	bc,#0xFF42
                           3928 ;	genAssign (pointer)
   0E52 3E 00              3929 	ld	a,#0x00
   0E54 02                 3930 	ld	(bc),a
                           3931 ;	galaxy.c 539
                           3932 ;	genAssign (pointer)
   0E55 11 09 00           3933 	ld	de,#_bspx
   0E58 3E 00              3934 	ld	a,#0x00
   0E5A 12                 3935 	ld	(de),a
   0E5B 13                 3936 	inc	de
   0E5C 3E FF              3937 	ld	a,#0xFF
   0E5E 12                 3938 	ld	(de),a
                           3939 ;	galaxy.c 540
                           3940 ;	genAssign (pointer)
   0E5F 11 0B 00           3941 	ld	de,#_bspy
   0E62 3E 80              3942 	ld	a,#0x80
   0E64 12                 3943 	ld	(de),a
   0E65 13                 3944 	inc	de
   0E66 3E 00              3945 	ld	a,#0x00
   0E68 12                 3946 	ld	(de),a
                           3947 ;	galaxy.c 543
                           3948 ;	genIpush
                           3949 ; _saveRegsForCall: sendSetSize: 0 deInUse: 0 bcInUse: 0 deSending: 0
   0E69 21 71 02           3950 	ld	hl,#_frame_data
   0E6C E5                 3951 	push	hl
                           3952 ;	genIpush
   0E6D 21 80 21           3953 	ld	hl,#0x2180
   0E70 E5                 3954 	push	hl
                           3955 ;	genCall
   0E71 CD 00 00           3956 	call	_set_win_data
   0E74 E8 04              3957 	lda	sp,4(sp)
                           3958 ;	galaxy.c 550
                           3959 ;	genIpush
                           3960 ; _saveRegsForCall: sendSetSize: 0 deInUse: 0 bcInUse: 0 deSending: 0
   0E76 21 9F 07           3961 	ld	hl,#_frame_tiles
   0E79 E5                 3962 	push	hl
                           3963 ;	genIpush
   0E7A 21 10 0A           3964 	ld	hl,#0x0A10
   0E7D E5                 3965 	push	hl
                           3966 ;	genIpush
   0E7E 21 00 00           3967 	ld	hl,#0x0000
   0E81 E5                 3968 	push	hl
                           3969 ;	genCall
   0E82 CD 00 00           3970 	call	_set_win_tiles
   0E85 E8 06              3971 	lda	sp,6(sp)
                           3972 ;	galaxy.c 557
                           3973 ;	genIpush
                           3974 ; _saveRegsForCall: sendSetSize: 0 deInUse: 0 bcInUse: 0 deSending: 0
   0E87 21 3F 08           3975 	ld	hl,#_door1_tiles
   0E8A E5                 3976 	push	hl
                           3977 ;	genIpush
   0E8B 21 0C 06           3978 	ld	hl,#0x060C
   0E8E E5                 3979 	push	hl
                           3980 ;	genIpush
   0E8F 21 02 02           3981 	ld	hl,#0x0202
   0E92 E5                 3982 	push	hl
                           3983 ;	genCall
   0E93 CD 00 00           3984 	call	_set_win_tiles
   0E96 E8 06              3985 	lda	sp,6(sp)
                           3986 ;	galaxy.c 558
                           3987 ;	genPlus
                           3988 ;	genPlusIncr
   0E98 21 0E 00           3989 	ld	hl,#_wposx + 1
                           3990 ;	genAssign (pointer)
   0E9B 36 A6              3991 	ld	(hl),#0xA6
                           3992 ;	galaxy.c 559
                           3993 ;	genAssign (pointer)
   0E9D 11 0D 00           3994 	ld	de,#_wposx
   0EA0 3E 00              3995 	ld	a,#0x00
   0EA2 12                 3996 	ld	(de),a
                           3997 ;	galaxy.c 560
                           3998 ;	genAssign
   0EA3 01 4B FF           3999 	ld	bc,#0xFF4B
                           4000 ;	genAssign (pointer)
   0EA6 3E A6              4001 	ld	a,#0xA6
   0EA8 02                 4002 	ld	(bc),a
                           4003 ;	galaxy.c 561
                           4004 ;	genPlus
                           4005 ;	genPlusIncr
   0EA9 21 10 00           4006 	ld	hl,#_wposy + 1
                           4007 ;	genAssign (pointer)
   0EAC 36 8F              4008 	ld	(hl),#0x8F
                           4009 ;	galaxy.c 562
                           4010 ;	genAssign (pointer)
   0EAE 11 0F 00           4011 	ld	de,#_wposy
   0EB1 3E 00              4012 	ld	a,#0x00
   0EB3 12                 4013 	ld	(de),a
                           4014 ;	galaxy.c 563
                           4015 ;	genAssign
   0EB4 01 4A FF           4016 	ld	bc,#0xFF4A
                           4017 ;	genAssign (pointer)
   0EB7 3E 8F              4018 	ld	a,#0x8F
   0EB9 02                 4019 	ld	(bc),a
                           4020 ;	galaxy.c 564
                           4021 ;	genAssign (pointer)
   0EBA 11 11 00           4022 	ld	de,#_wspx
   0EBD 3E 80              4023 	ld	a,#0x80
   0EBF 12                 4024 	ld	(de),a
   0EC0 13                 4025 	inc	de
   0EC1 3E FF              4026 	ld	a,#0xFF
   0EC3 12                 4027 	ld	(de),a
                           4028 ;	galaxy.c 565
                           4029 ;	genAssign (pointer)
   0EC4 11 13 00           4030 	ld	de,#_wspy
   0EC7 3E C0              4031 	ld	a,#0xC0
   0EC9 12                 4032 	ld	(de),a
   0ECA 13                 4033 	inc	de
   0ECB 3E FF              4034 	ld	a,#0xFF
   0ECD 12                 4035 	ld	(de),a
                           4036 ;	galaxy.c 568
                           4037 ;	genIpush
                           4038 ; _saveRegsForCall: sendSetSize: 0 deInUse: 0 bcInUse: 0 deSending: 0
   0ECE 21 B1 00           4039 	ld	hl,#_earth_data
   0ED1 E5                 4040 	push	hl
                           4041 ;	genIpush
   0ED2 21 00 1C           4042 	ld	hl,#0x1C00
   0ED5 E5                 4043 	push	hl
                           4044 ;	genCall
   0ED6 CD 00 00           4045 	call	_set_sprite_data
   0ED9 E8 04              4046 	lda	sp,4(sp)
                           4047 ;	galaxy.c 569
                           4048 ;	genIpush
                           4049 ; _saveRegsForCall: sendSetSize: 0 deInUse: 0 bcInUse: 0 deSending: 0
   0EDB 21 00 00           4050 	ld	hl,#0x0000
   0EDE E5                 4051 	push	hl
                           4052 ;	genCall
   0EDF CD 00 00           4053 	call	_set_sprite_prop
   0EE2 E8 02              4054 	lda	sp,2(sp)
                           4055 ;	galaxy.c 570
                           4056 ;	genIpush
                           4057 ; _saveRegsForCall: sendSetSize: 0 deInUse: 0 bcInUse: 0 deSending: 0
   0EE4 21 01 00           4058 	ld	hl,#0x0001
   0EE7 E5                 4059 	push	hl
                           4060 ;	genCall
   0EE8 CD 00 00           4061 	call	_set_sprite_prop
   0EEB E8 02              4062 	lda	sp,2(sp)
                           4063 ;	galaxy.c 571
                           4064 ;	genAssign
                           4065 ;	AOP_HL for _sframe
   0EED 21 04 00           4066 	ld	hl,#_sframe
   0EF0 36 00              4067 	ld	(hl),#0x00
                           4068 ;	galaxy.c 572
                           4069 ;	genAssign (pointer)
   0EF2 11 15 00           4070 	ld	de,#_sposx
   0EF5 3E 00              4071 	ld	a,#0x00
   0EF7 12                 4072 	ld	(de),a
   0EF8 13                 4073 	inc	de
   0EF9 3E 10              4074 	ld	a,#0x10
   0EFB 12                 4075 	ld	(de),a
                           4076 ;	galaxy.c 573
                           4077 ;	genAssign (pointer)
   0EFC 11 17 00           4078 	ld	de,#_sposy
   0EFF 3E 00              4079 	ld	a,#0x00
   0F01 12                 4080 	ld	(de),a
   0F02 13                 4081 	inc	de
   0F03 3E 10              4082 	ld	a,#0x10
   0F05 12                 4083 	ld	(de),a
                           4084 ;	galaxy.c 574
                           4085 ;	genAssign (pointer)
   0F06 11 19 00           4086 	ld	de,#_sspx
   0F09 3E 40              4087 	ld	a,#0x40
   0F0B 12                 4088 	ld	(de),a
   0F0C 13                 4089 	inc	de
   0F0D 3E 00              4090 	ld	a,#0x00
   0F0F 12                 4091 	ld	(de),a
                           4092 ;	galaxy.c 575
                           4093 ;	genAssign (pointer)
   0F10 11 1B 00           4094 	ld	de,#_sspy
   0F13 3E 40              4095 	ld	a,#0x40
   0F15 12                 4096 	ld	(de),a
   0F16 13                 4097 	inc	de
   0F17 3E 00              4098 	ld	a,#0x00
   0F19 12                 4099 	ld	(de),a
                           4100 ;	galaxy.c 576
                           4101 ;	genCall
                           4102 ; _saveRegsForCall: sendSetSize: 0 deInUse: 0 bcInUse: 0 deSending: 0
   0F1A CD 13 0D           4103 	call	_tile_sprite
                           4104 ;	galaxy.c 577
                           4105 ;	genCall
                           4106 ; _saveRegsForCall: sendSetSize: 0 deInUse: 0 bcInUse: 0 deSending: 0
   0F1D CD 54 0D           4107 	call	_place_sprite
                           4108 ;	galaxy.c 579
                           4109 ;	genAssign
   0F20 01 40 FF           4110 	ld	bc,#0xFF40
                           4111 ;	genAssign
                           4112 ;	AOP_STK for _main_sloc1_1_0
   0F23 F8 00              4113 	lda	hl,0(sp)
   0F25 36 40              4114 	ld	(hl),#0x40
   0F27 23                 4115 	inc	hl
   0F28 36 FF              4116 	ld	(hl),#0xFF
                           4117 ;	genPointerGet
                           4118 ;	AOP_STK for _main_sloc1_1_0
                           4119 ;	AOP_STK for _main_sloc0_1_0
   0F2A 2B                 4120 	dec	hl
   0F2B 5E                 4121 	ld	e,(hl)
   0F2C 23                 4122 	inc	hl
   0F2D 56                 4123 	ld	d,(hl)
   0F2E 1A                 4124 	ld	a,(de)
   0F2F 23                 4125 	inc	hl
                           4126 ;	genOr
                           4127 ;	AOP_STK for _main_sloc0_1_0
   0F30 77                 4128 	ld      (hl),a
                           4129 ; Removed redundent load
   0F31 F6 80              4130 	or	a,#0x80
                           4131 ;	genAssign (pointer)
   0F33 02                 4132 	ld	(bc),a
                           4133 ;	galaxy.c 580
                           4134 ;	genCall
                           4135 ; _saveRegsForCall: sendSetSize: 0 deInUse: 0 bcInUse: 0 deSending: 0
   0F34 CD 00 00           4136 	call	_enable_interrupts
                           4137 ;	galaxy.c 582
                           4138 ;	genLabel
   0F37                    4139 00141$:
                           4140 ;	galaxy.c 584
                           4141 ;	genAssign
                           4142 ;	AOP_STK for _main_i_1_1
   0F37 F8 04              4143 	lda	hl,4(sp)
   0F39 36 00              4144 	ld	(hl),#0x00
                           4145 ;	genLabel
   0F3B                    4146 00151$:
                           4147 ;	genCmpLt
                           4148 ;	AOP_STK for _main_i_1_1
   0F3B F8 04              4149 	lda	hl,4(sp)
   0F3D 7E                 4150 	ld	a,(hl)
   0F3E FE 04              4151 	cp	#0x04
   0F40 3E 00              4152 	ld	a,#0x00
   0F42 17                 4153 	rla
   0F43 4F                 4154 	ld	c,a
                           4155 ;	genIfx
   0F44 AF                 4156 	xor	a,a
   0F45 B1                 4157 	or	a,c
   0F46 CA 57 0F           4158 	jp	z,00154$
                           4159 ;	galaxy.c 585
                           4160 ;	genCall
                           4161 ; _saveRegsForCall: sendSetSize: 0 deInUse: 0 bcInUse: 1 deSending: 0
   0F49 C5                 4162 	push	bc
   0F4A CD 00 00           4163 	call	_wait_vbl_done
   0F4D E1                 4164 	pop	hl
   0F4E 4D                 4165 	ld	c,l
                           4166 ;	galaxy.c 584
                           4167 ;	genPlus
                           4168 ;	AOP_STK for _main_i_1_1
                           4169 ;	genPlusIncr
   0F4F F8 04              4170 	lda	hl,4(sp)
   0F51 46                 4171 	ld	b,(hl)
   0F52 04                 4172 	inc	b
                           4173 ;	genAssign
                           4174 ;	AOP_STK for _main_i_1_1
   0F53 70                 4175 	ld	(hl),b
                           4176 ;	genGoto
   0F54 C3 3B 0F           4177 	jp	00151$
                           4178 ;	genLabel
   0F57                    4179 00154$:
                           4180 ;	galaxy.c 586
                           4181 ;	genPlus
                           4182 ;	AOP_HL for _time
                           4183 ;	genPlusIncr
   0F57 21 00 00           4184 	ld	hl,#_time
   0F5A 34                 4185 	inc	(hl)
                           4186 ;	galaxy.c 587
                           4187 ;	genCall
                           4188 ; _saveRegsForCall: sendSetSize: 0 deInUse: 0 bcInUse: 0 deSending: 0
   0F5B CD 00 00           4189 	call	_fade
                           4190 ;	galaxy.c 588
                           4191 ;	genCall
                           4192 ; _saveRegsForCall: sendSetSize: 0 deInUse: 0 bcInUse: 0 deSending: 0
   0F5E CD 5A 0C           4193 	call	_door
                           4194 ;	galaxy.c 589
                           4195 ;	genCall
                           4196 ; _saveRegsForCall: sendSetSize: 0 deInUse: 0 bcInUse: 0 deSending: 0
   0F61 CD 8D 0A           4197 	call	_scroll
                           4198 ;	galaxy.c 590
                           4199 ;	genCall
                           4200 ; _saveRegsForCall: sendSetSize: 0 deInUse: 0 bcInUse: 0 deSending: 0
   0F64 CD EB 0C           4201 	call	_animate_sprite
                           4202 ;	galaxy.c 591
                           4203 ;	genCall
                           4204 ; _saveRegsForCall: sendSetSize: 0 deInUse: 0 bcInUse: 0 deSending: 0
   0F67 CD 00 00           4205 	call	_joypad
   0F6A 4B                 4206 	ld	c,e
                           4207 ;	genAssign
                           4208 ;	AOP_STK for _main_i_1_1
   0F6B F8 04              4209 	lda	hl,4(sp)
   0F6D 71                 4210 	ld	(hl),c
                           4211 ;	galaxy.c 592
                           4212 ;	genAnd
                           4213 ;	AOP_STK for _main_i_1_1
   0F6E 7E                 4214 	ld	a,(hl)
   0F6F E6 20              4215 	and	a,#0x20
   0F71 20 03              4216 	jr	nz,00182$
   0F73 C3 F9 0F           4217 	jp	00138$
   0F76                    4218 00182$:
                           4219 ;	galaxy.c 593
                           4220 ;	genAnd
                           4221 ;	AOP_STK for _main_i_1_1
   0F76 F8 04              4222 	lda	hl,4(sp)
   0F78 7E                 4223 	ld	a,(hl)
   0F79 E6 04              4224 	and	a,#0x04
   0F7B 20 03              4225 	jr	nz,00183$
   0F7D C3 98 0F           4226 	jp	00102$
   0F80                    4227 00183$:
                           4228 ;	galaxy.c 594
                           4229 ;	genPointerGet
   0F80 11 0B 00           4230 	ld	de,#_bspy
   0F83 1A                 4231 	ld	a,(de)
   0F84 4F                 4232 	ld	c,a
   0F85 13                 4233 	inc	de
   0F86 1A                 4234 	ld	a,(de)
   0F87 47                 4235 	ld	b,a
                           4236 ;	genMinus
   0F88 79                 4237 	ld	a,c
   0F89 C6 F0              4238 	add	a,#0xF0
   0F8B 4F                 4239 	ld	c,a
   0F8C 78                 4240 	ld	a,b
   0F8D CE FF              4241 	adc	a,#0xFF
   0F8F 47                 4242 	ld	b,a
                           4243 ;	genAssign (pointer)
   0F90 11 0B 00           4244 	ld	de,#_bspy
   0F93 79                 4245 	ld	a,c
   0F94 12                 4246 	ld	(de),a
   0F95 13                 4247 	inc	de
   0F96 78                 4248 	ld	a,b
   0F97 12                 4249 	ld	(de),a
                           4250 ;	genLabel
   0F98                    4251 00102$:
                           4252 ;	galaxy.c 595
                           4253 ;	genAnd
                           4254 ;	AOP_STK for _main_i_1_1
   0F98 F8 04              4255 	lda	hl,4(sp)
   0F9A 7E                 4256 	ld	a,(hl)
   0F9B E6 08              4257 	and	a,#0x08
   0F9D 20 03              4258 	jr	nz,00184$
   0F9F C3 B6 0F           4259 	jp	00104$
   0FA2                    4260 00184$:
                           4261 ;	galaxy.c 596
                           4262 ;	genPointerGet
   0FA2 11 0B 00           4263 	ld	de,#_bspy
   0FA5 1A                 4264 	ld	a,(de)
   0FA6 4F                 4265 	ld	c,a
   0FA7 13                 4266 	inc	de
   0FA8 1A                 4267 	ld	a,(de)
   0FA9 47                 4268 	ld	b,a
                           4269 ;	genPlus
                           4270 ;	genPlusIncr
   0FAA 21 10 00           4271 	ld	hl,#0x0010
   0FAD 09                 4272 	add	hl,bc
                           4273 ;	genAssign (pointer)
   0FAE 11 0B 00           4274 	ld	de,#_bspy
   0FB1 7D                 4275 	ld	a,l
   0FB2 12                 4276 	ld	(de),a
   0FB3 13                 4277 	inc	de
   0FB4 7C                 4278 	ld	a,h
   0FB5 12                 4279 	ld	(de),a
                           4280 ;	genLabel
   0FB6                    4281 00104$:
                           4282 ;	galaxy.c 597
                           4283 ;	genAnd
                           4284 ;	AOP_STK for _main_i_1_1
   0FB6 F8 04              4285 	lda	hl,4(sp)
   0FB8 7E                 4286 	ld	a,(hl)
   0FB9 E6 02              4287 	and	a,#0x02
   0FBB 20 03              4288 	jr	nz,00185$
   0FBD C3 D8 0F           4289 	jp	00106$
   0FC0                    4290 00185$:
                           4291 ;	galaxy.c 598
                           4292 ;	genPointerGet
   0FC0 11 09 00           4293 	ld	de,#_bspx
   0FC3 1A                 4294 	ld	a,(de)
   0FC4 4F                 4295 	ld	c,a
   0FC5 13                 4296 	inc	de
   0FC6 1A                 4297 	ld	a,(de)
   0FC7 47                 4298 	ld	b,a
                           4299 ;	genMinus
   0FC8 79                 4300 	ld	a,c
   0FC9 C6 F0              4301 	add	a,#0xF0
   0FCB 4F                 4302 	ld	c,a
   0FCC 78                 4303 	ld	a,b
   0FCD CE FF              4304 	adc	a,#0xFF
   0FCF 47                 4305 	ld	b,a
                           4306 ;	genAssign (pointer)
   0FD0 11 09 00           4307 	ld	de,#_bspx
   0FD3 79                 4308 	ld	a,c
   0FD4 12                 4309 	ld	(de),a
   0FD5 13                 4310 	inc	de
   0FD6 78                 4311 	ld	a,b
   0FD7 12                 4312 	ld	(de),a
                           4313 ;	genLabel
   0FD8                    4314 00106$:
                           4315 ;	galaxy.c 599
                           4316 ;	genAnd
                           4317 ;	AOP_STK for _main_i_1_1
   0FD8 F8 04              4318 	lda	hl,4(sp)
   0FDA 7E                 4319 	ld	a,(hl)
   0FDB E6 01              4320 	and	a,#0x01
   0FDD 20 03              4321 	jr	nz,00186$
   0FDF C3 37 0F           4322 	jp	00141$
   0FE2                    4323 00186$:
                           4324 ;	galaxy.c 600
                           4325 ;	genPointerGet
   0FE2 11 09 00           4326 	ld	de,#_bspx
   0FE5 1A                 4327 	ld	a,(de)
   0FE6 4F                 4328 	ld	c,a
   0FE7 13                 4329 	inc	de
   0FE8 1A                 4330 	ld	a,(de)
   0FE9 47                 4331 	ld	b,a
                           4332 ;	genPlus
                           4333 ;	genPlusIncr
   0FEA 21 10 00           4334 	ld	hl,#0x0010
   0FED 09                 4335 	add	hl,bc
                           4336 ;	genAssign (pointer)
   0FEE 11 09 00           4337 	ld	de,#_bspx
   0FF1 7D                 4338 	ld	a,l
   0FF2 12                 4339 	ld	(de),a
   0FF3 13                 4340 	inc	de
   0FF4 7C                 4341 	ld	a,h
   0FF5 12                 4342 	ld	(de),a
                           4343 ;	genGoto
   0FF6 C3 37 0F           4344 	jp	00141$
                           4345 ;	genLabel
   0FF9                    4346 00138$:
                           4347 ;	galaxy.c 601
                           4348 ;	genAnd
                           4349 ;	AOP_STK for _main_i_1_1
   0FF9 F8 04              4350 	lda	hl,4(sp)
   0FFB 7E                 4351 	ld	a,(hl)
   0FFC E6 10              4352 	and	a,#0x10
   0FFE 20 03              4353 	jr	nz,00187$
   1000 C3 86 10           4354 	jp	00135$
   1003                    4355 00187$:
                           4356 ;	galaxy.c 602
                           4357 ;	genAnd
                           4358 ;	AOP_STK for _main_i_1_1
   1003 F8 04              4359 	lda	hl,4(sp)
   1005 7E                 4360 	ld	a,(hl)
   1006 E6 04              4361 	and	a,#0x04
   1008 20 03              4362 	jr	nz,00188$
   100A C3 25 10           4363 	jp	00110$
   100D                    4364 00188$:
                           4365 ;	galaxy.c 603
                           4366 ;	genPointerGet
   100D 11 13 00           4367 	ld	de,#_wspy
   1010 1A                 4368 	ld	a,(de)
   1011 4F                 4369 	ld	c,a
   1012 13                 4370 	inc	de
   1013 1A                 4371 	ld	a,(de)
   1014 47                 4372 	ld	b,a
                           4373 ;	genMinus
   1015 79                 4374 	ld	a,c
   1016 C6 F0              4375 	add	a,#0xF0
   1018 4F                 4376 	ld	c,a
   1019 78                 4377 	ld	a,b
   101A CE FF              4378 	adc	a,#0xFF
   101C 47                 4379 	ld	b,a
                           4380 ;	genAssign (pointer)
   101D 11 13 00           4381 	ld	de,#_wspy
   1020 79                 4382 	ld	a,c
   1021 12                 4383 	ld	(de),a
   1022 13                 4384 	inc	de
   1023 78                 4385 	ld	a,b
   1024 12                 4386 	ld	(de),a
                           4387 ;	genLabel
   1025                    4388 00110$:
                           4389 ;	galaxy.c 604
                           4390 ;	genAnd
                           4391 ;	AOP_STK for _main_i_1_1
   1025 F8 04              4392 	lda	hl,4(sp)
   1027 7E                 4393 	ld	a,(hl)
   1028 E6 08              4394 	and	a,#0x08
   102A 20 03              4395 	jr	nz,00189$
   102C C3 43 10           4396 	jp	00112$
   102F                    4397 00189$:
                           4398 ;	galaxy.c 605
                           4399 ;	genPointerGet
   102F 11 13 00           4400 	ld	de,#_wspy
   1032 1A                 4401 	ld	a,(de)
   1033 4F                 4402 	ld	c,a
   1034 13                 4403 	inc	de
   1035 1A                 4404 	ld	a,(de)
   1036 47                 4405 	ld	b,a
                           4406 ;	genPlus
                           4407 ;	genPlusIncr
   1037 21 10 00           4408 	ld	hl,#0x0010
   103A 09                 4409 	add	hl,bc
                           4410 ;	genAssign (pointer)
   103B 11 13 00           4411 	ld	de,#_wspy
   103E 7D                 4412 	ld	a,l
   103F 12                 4413 	ld	(de),a
   1040 13                 4414 	inc	de
   1041 7C                 4415 	ld	a,h
   1042 12                 4416 	ld	(de),a
                           4417 ;	genLabel
   1043                    4418 00112$:
                           4419 ;	galaxy.c 606
                           4420 ;	genAnd
                           4421 ;	AOP_STK for _main_i_1_1
   1043 F8 04              4422 	lda	hl,4(sp)
   1045 7E                 4423 	ld	a,(hl)
   1046 E6 02              4424 	and	a,#0x02
   1048 20 03              4425 	jr	nz,00190$
   104A C3 65 10           4426 	jp	00114$
   104D                    4427 00190$:
                           4428 ;	galaxy.c 607
                           4429 ;	genPointerGet
   104D 11 11 00           4430 	ld	de,#_wspx
   1050 1A                 4431 	ld	a,(de)
   1051 4F                 4432 	ld	c,a
   1052 13                 4433 	inc	de
   1053 1A                 4434 	ld	a,(de)
   1054 47                 4435 	ld	b,a
                           4436 ;	genMinus
   1055 79                 4437 	ld	a,c
   1056 C6 F0              4438 	add	a,#0xF0
   1058 4F                 4439 	ld	c,a
   1059 78                 4440 	ld	a,b
   105A CE FF              4441 	adc	a,#0xFF
   105C 47                 4442 	ld	b,a
                           4443 ;	genAssign (pointer)
   105D 11 11 00           4444 	ld	de,#_wspx
   1060 79                 4445 	ld	a,c
   1061 12                 4446 	ld	(de),a
   1062 13                 4447 	inc	de
   1063 78                 4448 	ld	a,b
   1064 12                 4449 	ld	(de),a
                           4450 ;	genLabel
   1065                    4451 00114$:
                           4452 ;	galaxy.c 608
                           4453 ;	genAnd
                           4454 ;	AOP_STK for _main_i_1_1
   1065 F8 04              4455 	lda	hl,4(sp)
   1067 7E                 4456 	ld	a,(hl)
   1068 E6 01              4457 	and	a,#0x01
   106A 20 03              4458 	jr	nz,00191$
   106C C3 37 0F           4459 	jp	00141$
   106F                    4460 00191$:
                           4461 ;	galaxy.c 609
                           4462 ;	genPointerGet
   106F 11 11 00           4463 	ld	de,#_wspx
   1072 1A                 4464 	ld	a,(de)
   1073 4F                 4465 	ld	c,a
   1074 13                 4466 	inc	de
   1075 1A                 4467 	ld	a,(de)
   1076 47                 4468 	ld	b,a
                           4469 ;	genPlus
                           4470 ;	genPlusIncr
   1077 21 10 00           4471 	ld	hl,#0x0010
   107A 09                 4472 	add	hl,bc
                           4473 ;	genAssign (pointer)
   107B 11 11 00           4474 	ld	de,#_wspx
   107E 7D                 4475 	ld	a,l
   107F 12                 4476 	ld	(de),a
   1080 13                 4477 	inc	de
   1081 7C                 4478 	ld	a,h
   1082 12                 4479 	ld	(de),a
                           4480 ;	genGoto
   1083 C3 37 0F           4481 	jp	00141$
                           4482 ;	genLabel
   1086                    4483 00135$:
                           4484 ;	galaxy.c 611
                           4485 ;	genAnd
                           4486 ;	AOP_STK for _main_i_1_1
   1086 F8 04              4487 	lda	hl,4(sp)
   1088 7E                 4488 	ld	a,(hl)
   1089 E6 40              4489 	and	a,#0x40
   108B 20 03              4490 	jr	nz,00192$
   108D C3 95 10           4491 	jp	00118$
   1090                    4492 00192$:
                           4493 ;	galaxy.c 612
                           4494 ;	genAssign
                           4495 ;	AOP_HL for _color
   1090 21 03 00           4496 	ld	hl,#_color
   1093 36 60              4497 	ld	(hl),#0x60
                           4498 ;	genLabel
   1095                    4499 00118$:
                           4500 ;	galaxy.c 613
                           4501 ;	genAnd
                           4502 ;	AOP_STK for _main_i_1_1
   1095 F8 04              4503 	lda	hl,4(sp)
   1097 7E                 4504 	ld	a,(hl)
   1098 E6 80              4505 	and	a,#0x80
   109A 20 03              4506 	jr	nz,00193$
   109C C3 D1 10           4507 	jp	00125$
   109F                    4508 00193$:
                           4509 ;	galaxy.c 614
                           4510 ;	genCmpEq
                           4511 ;	AOP_HL for _doorstate
                           4512 ; genCmpEq: left 1, right 1, result 0
   109F 21 01 00           4513 	ld	hl,#_doorstate
   10A2 7E                 4514 	ld	a,(hl)
   10A3 B7                 4515 	or	a,a
   10A4 C2 B9 10           4516 	jp	nz,00122$
   10A7 18 03              4517 	jr	00195$
   10A9                    4518 00194$:
   10A9 C3 B9 10           4519 	jp	00122$
   10AC                    4520 00195$:
                           4521 ;	galaxy.c 615
                           4522 ;	genAssign
                           4523 ;	AOP_HL for _doorstate
   10AC 21 01 00           4524 	ld	hl,#_doorstate
   10AF 36 01              4525 	ld	(hl),#0x01
                           4526 ;	galaxy.c 616
                           4527 ;	genAssign
                           4528 ;	AOP_HL for _doorpos
   10B1 21 02 00           4529 	ld	hl,#_doorpos
   10B4 36 00              4530 	ld	(hl),#0x00
                           4531 ;	genGoto
   10B6 C3 D1 10           4532 	jp	00125$
                           4533 ;	genLabel
   10B9                    4534 00122$:
                           4535 ;	galaxy.c 617
                           4536 ;	genCmpEq
                           4537 ;	AOP_HL for _doorstate
                           4538 ; genCmpEq: left 1, right 1, result 0
   10B9 21 01 00           4539 	ld	hl,#_doorstate
   10BC 7E                 4540 	ld	a,(hl)
   10BD FE 02              4541 	cp	a,#0x02
   10BF C2 D1 10           4542 	jp	nz,00125$
   10C2 18 03              4543 	jr	00197$
   10C4                    4544 00196$:
   10C4 C3 D1 10           4545 	jp	00125$
   10C7                    4546 00197$:
                           4547 ;	galaxy.c 618
                           4548 ;	genAssign
                           4549 ;	AOP_HL for _doorstate
   10C7 21 01 00           4550 	ld	hl,#_doorstate
   10CA 36 03              4551 	ld	(hl),#0x03
                           4552 ;	galaxy.c 619
                           4553 ;	genAssign
                           4554 ;	AOP_HL for _doorpos
   10CC 21 02 00           4555 	ld	hl,#_doorpos
   10CF 36 18              4556 	ld	(hl),#0x18
                           4557 ;	genLabel
   10D1                    4558 00125$:
                           4559 ;	galaxy.c 621
                           4560 ;	genAnd
                           4561 ;	AOP_STK for _main_i_1_1
   10D1 F8 04              4562 	lda	hl,4(sp)
   10D3 7E                 4563 	ld	a,(hl)
   10D4 E6 04              4564 	and	a,#0x04
   10D6 20 03              4565 	jr	nz,00198$
   10D8 C3 F3 10           4566 	jp	00127$
   10DB                    4567 00198$:
                           4568 ;	galaxy.c 622
                           4569 ;	genPointerGet
   10DB 11 1B 00           4570 	ld	de,#_sspy
   10DE 1A                 4571 	ld	a,(de)
   10DF 4F                 4572 	ld	c,a
   10E0 13                 4573 	inc	de
   10E1 1A                 4574 	ld	a,(de)
   10E2 47                 4575 	ld	b,a
                           4576 ;	genMinus
   10E3 79                 4577 	ld	a,c
   10E4 C6 F0              4578 	add	a,#0xF0
   10E6 4F                 4579 	ld	c,a
   10E7 78                 4580 	ld	a,b
   10E8 CE FF              4581 	adc	a,#0xFF
   10EA 47                 4582 	ld	b,a
                           4583 ;	genAssign (pointer)
   10EB 11 1B 00           4584 	ld	de,#_sspy
   10EE 79                 4585 	ld	a,c
   10EF 12                 4586 	ld	(de),a
   10F0 13                 4587 	inc	de
   10F1 78                 4588 	ld	a,b
   10F2 12                 4589 	ld	(de),a
                           4590 ;	genLabel
   10F3                    4591 00127$:
                           4592 ;	galaxy.c 623
                           4593 ;	genAnd
                           4594 ;	AOP_STK for _main_i_1_1
   10F3 F8 04              4595 	lda	hl,4(sp)
   10F5 7E                 4596 	ld	a,(hl)
   10F6 E6 08              4597 	and	a,#0x08
   10F8 20 03              4598 	jr	nz,00199$
   10FA C3 11 11           4599 	jp	00129$
   10FD                    4600 00199$:
                           4601 ;	galaxy.c 624
                           4602 ;	genPointerGet
   10FD 11 1B 00           4603 	ld	de,#_sspy
   1100 1A                 4604 	ld	a,(de)
   1101 4F                 4605 	ld	c,a
   1102 13                 4606 	inc	de
   1103 1A                 4607 	ld	a,(de)
   1104 47                 4608 	ld	b,a
                           4609 ;	genPlus
                           4610 ;	genPlusIncr
   1105 21 10 00           4611 	ld	hl,#0x0010
   1108 09                 4612 	add	hl,bc
                           4613 ;	genAssign (pointer)
   1109 11 1B 00           4614 	ld	de,#_sspy
   110C 7D                 4615 	ld	a,l
   110D 12                 4616 	ld	(de),a
   110E 13                 4617 	inc	de
   110F 7C                 4618 	ld	a,h
   1110 12                 4619 	ld	(de),a
                           4620 ;	genLabel
   1111                    4621 00129$:
                           4622 ;	galaxy.c 625
                           4623 ;	genAnd
                           4624 ;	AOP_STK for _main_i_1_1
   1111 F8 04              4625 	lda	hl,4(sp)
   1113 7E                 4626 	ld	a,(hl)
   1114 E6 02              4627 	and	a,#0x02
   1116 20 03              4628 	jr	nz,00200$
   1118 C3 33 11           4629 	jp	00131$
   111B                    4630 00200$:
                           4631 ;	galaxy.c 626
                           4632 ;	genPointerGet
   111B 11 19 00           4633 	ld	de,#_sspx
   111E 1A                 4634 	ld	a,(de)
   111F 4F                 4635 	ld	c,a
   1120 13                 4636 	inc	de
   1121 1A                 4637 	ld	a,(de)
   1122 47                 4638 	ld	b,a
                           4639 ;	genMinus
   1123 79                 4640 	ld	a,c
   1124 C6 F0              4641 	add	a,#0xF0
   1126 4F                 4642 	ld	c,a
   1127 78                 4643 	ld	a,b
   1128 CE FF              4644 	adc	a,#0xFF
   112A 47                 4645 	ld	b,a
                           4646 ;	genAssign (pointer)
   112B 11 19 00           4647 	ld	de,#_sspx
   112E 79                 4648 	ld	a,c
   112F 12                 4649 	ld	(de),a
   1130 13                 4650 	inc	de
   1131 78                 4651 	ld	a,b
   1132 12                 4652 	ld	(de),a
                           4653 ;	genLabel
   1133                    4654 00131$:
                           4655 ;	galaxy.c 627
                           4656 ;	genAnd
                           4657 ;	AOP_STK for _main_i_1_1
   1133 F8 04              4658 	lda	hl,4(sp)
   1135 7E                 4659 	ld	a,(hl)
   1136 E6 01              4660 	and	a,#0x01
   1138 20 03              4661 	jr	nz,00201$
   113A C3 37 0F           4662 	jp	00141$
   113D                    4663 00201$:
                           4664 ;	galaxy.c 628
                           4665 ;	genPointerGet
   113D 11 19 00           4666 	ld	de,#_sspx
   1140 1A                 4667 	ld	a,(de)
   1141 4F                 4668 	ld	c,a
   1142 13                 4669 	inc	de
   1143 1A                 4670 	ld	a,(de)
   1144 47                 4671 	ld	b,a
                           4672 ;	genPlus
                           4673 ;	genPlusIncr
   1145 21 10 00           4674 	ld	hl,#0x0010
   1148 09                 4675 	add	hl,bc
                           4676 ;	genAssign (pointer)
   1149 11 19 00           4677 	ld	de,#_sspx
   114C 7D                 4678 	ld	a,l
   114D 12                 4679 	ld	(de),a
   114E 13                 4680 	inc	de
   114F 7C                 4681 	ld	a,h
   1150 12                 4682 	ld	(de),a
                           4683 ;	genGoto
   1151 C3 37 0F           4684 	jp	00141$
                           4685 ;	genLabel
   1154                    4686 00155$:
                           4687 ;	genEndFunction
   1154 E8 05              4688 	lda	sp,5(sp)
   1156 C9                 4689 	ret
   1157                    4690 ___main_end:
                           4691 	.area _CODE
ASxxxx Assembler V01.75  (GameBoy Z80-like CPU), page 1.

Symbol Table

  0 ___animate_sprite_end              0D13 R
  0 ___animate_sprite_start            0CEB R
  0 ___door_end                        0CEB R
  0 ___door_start                      0C5A R
  0 ___fade_end                        0071 R
  0 ___fade_start                      0000 R
  0 ___main_end                        1157 R
  0 ___main_start                      0DA2 R
  0 ___place_sprite_end                0DA2 R
  0 ___place_sprite_start              0D54 R
  0 ___scroll_end                      0C5A R
  0 ___scroll_start                    0A8D R
  0 ___tile_sprite_end                 0D54 R
  0 ___tile_sprite_start               0D13 R
  0 _animate_sprite                    0CEB GR
  0 _bkg_data                          0481 GR
  0 _bkg_tiles                         0751 GR
  1 _bposx                             0005 GR
  1 _bposy                             0007 GR
  1 _bspx                              0009 GR
  1 _bspy                              000B GR
  1 _color                             0003 R
    _disable_interrupts                **** GX
    _display_off                       **** GX
  0 _door                              0C5A GR
  0 _door1_tiles                       083F GR
  0 _door2_tiles                       08CF GR
  0 _door3_tiles                       0953 GR
  0 _door4_tiles                       09D7 GR
  1 _doorpos                           0002 GR
  1 _doorstate                         0001 GR
  0 _earth_data                        00B1 GR
  0 _earth_tiles                       0791 GR
    _enable_interrupts                 **** GX
  0 _fade                              0000 GR
  0 _film                              0A5B GR
  0 _frame_data                        0271 GR
  0 _frame_tiles                       079F GR
    _joypad                            **** GX
  0 _main                              0DA2 GR
    _move_sprite                       **** GX
  0 _place_sprite                      0D54 GR
  0 _scroll                            0A8D GR
    _set_bkg_data                      **** GX
    _set_bkg_tiles                     **** GX
    _set_sprite_data                   **** GX
    _set_sprite_prop                   **** GX
    _set_sprite_tile                   **** GX
    _set_win_data                      **** GX
    _set_win_tiles                     **** GX
  1 _sframe                            0004 GR
  1 _sposx                             0015 GR
  1 _sposy                             0017 GR
  1 _sspx                              0019 GR
  1 _sspy                              001B GR
  0 _std_data                          0071 GR
  0 _tile_sprite                       0D13 GR
  1 _time                              0000 R
    _wait_vbl_done                     **** GX
  1 _wposx                             000D GR
  1 _wposy                             000F GR
  1 _wspx                              0011 GR
  1 _wspy                              0013 GR

ASxxxx Assembler V01.75  (GameBoy Z80-like CPU), page 2.

Area Table

   0 _CODE                              size 1157   flags 0
   1 _DATA                              size   1D   flags 0
   2 _OVERLAY                           size    0   flags 0
   3 _ISEG                              size    0   flags 0
   4 _BSEG                              size    0   flags 0
   5 _XSEG                              size    0   flags 0
   6 _GSINIT                            size    0   flags 0
   7 _GSFINAL                           size    0   flags 0
   8 _HOME                              size    0   flags 0
