                              1 ;--------------------------------------------------------
                              2 ; File Created by SDCC : FreeWare ANSI-C Compiler
                              3 ; Version 2.3.1 Sat Apr  4 17:10:57 2015
                              4 
                              5 ;--------------------------------------------------------
                              6 	.module lcc542220
                              7 	
                              8 ;--------------------------------------------------------
                              9 ; Public variables in this module
                             10 ;--------------------------------------------------------
                             11 	.globl _main
                             12 	.globl _run
                             13 	.globl _menu
                             14 	.globl _splash
                             15 	.globl _reset_icon
                             16 	.globl _change_icon
                             17 	.globl _set_icon
                             18 	.globl _move_menu_cursor
                             19 	.globl _move_cursor
                             20 	.globl _set_cursor
                             21 	.globl _cursor_y
                             22 	.globl _cursor_x
                             23 	.globl _menu_cursor_pos
                             24 	.globl _current_cursor
                             25 	.globl _current_mode
                             26 	.globl _current_color
                             27 	.globl _current_tool
                             28 	.globl _data_buffer
                             29 	.globl _modes
                             30 	.globl _colors
                             31 	.globl _cursors_data
                             32 	.globl _cursors
                             33 	.globl _selected_data
                             34 	.globl _data
                             35 	.globl _icons
                             36 ;--------------------------------------------------------
                             37 ; special function registers
                             38 ;--------------------------------------------------------
                             39 ;--------------------------------------------------------
                             40 ; special function bits 
                             41 ;--------------------------------------------------------
                             42 ;--------------------------------------------------------
                             43 ; internal ram data
                             44 ;--------------------------------------------------------
                             45 	.area _DATA
   0000                      46 _data_buffer::
   0000                      47 	.ds 768
   0300                      48 _current_tool::
   0300                      49 	.ds 1
   0301                      50 _current_color::
   0301                      51 	.ds 1
   0302                      52 _current_mode::
   0302                      53 	.ds 1
   0303                      54 _current_cursor::
   0303                      55 	.ds 1
   0304                      56 _menu_cursor_pos::
   0304                      57 	.ds 1
   0305                      58 _cursor_x::
   0305                      59 	.ds 1
   0306                      60 _cursor_y::
   0306                      61 	.ds 1
                             62 ;--------------------------------------------------------
                             63 ; overlayable items in internal ram 
                             64 ;--------------------------------------------------------
                             65 	.area _OVERLAY
                             66 ;--------------------------------------------------------
                             67 ; indirectly addressable internal ram data
                             68 ;--------------------------------------------------------
                             69 	.area _ISEG
                             70 ;--------------------------------------------------------
                             71 ; bit data
                             72 ;--------------------------------------------------------
                             73 	.area _BSEG
                             74 ;--------------------------------------------------------
                             75 ; external ram data
                             76 ;--------------------------------------------------------
                             77 	.area _XSEG
                             78 ;--------------------------------------------------------
                             79 ; global & static initialisations
                             80 ;--------------------------------------------------------
                             81 	.area _GSINIT
                             82 	.area _GSFINAL
                             83 	.area _GSINIT
                             84 ;--------------------------------------------------------
                             85 ; Home
                             86 ;--------------------------------------------------------
                             87 	.area _HOME
                             88 	.area _CODE
                             89 ;--------------------------------------------------------
                             90 ; code
                             91 ;--------------------------------------------------------
                             92 	.area _CODE
                             93 ;	paint.c 261
                             94 ;	genLabel
                             95 ;	genFunction
                             96 ;	---------------------------------
                             97 ; Function set_cursor
                             98 ; ---------------------------------
   0000                      99 ___set_cursor_start:
   0000                     100 _set_cursor:
   0000 E8 ED               101 	lda	sp,-19(sp)
                            102 ;	paint.c 265
                            103 ;	genAssign
                            104 ;	AOP_STK for _set_cursor_i_1_1
   0002 F8 10               105 	lda	hl,16(sp)
   0004 36 00               106 	ld	(hl),#0x00
                            107 ;	paint.c 266
                            108 ;	genAssign
                            109 ;	AOP_STK for _set_cursor_x_1_1
   0006 23                  110 	inc	hl
   0007 23                  111 	inc	hl
   0008 36 00               112 	ld	(hl),#0x00
                            113 ;	genLabel
   000A                     114 00105$:
                            115 ;	genMult
                            116 ;	AOP_HL for _current_cursor
   000A 21 03 03            117 	ld	hl,#_current_cursor
   000D 5E                  118 	ld	e,(hl)
   000E 16 00               119 	ld	d,#0x00
   0010 6B                  120 	ld	l,e
   0011 62                  121 	ld	h,d
   0012 29                  122 	add	hl,hl
   0013 29                  123 	add	hl,hl
   0014 19                  124 	add	hl,de
   0015 45                  125 	ld	b,l
   0016 4C                  126 	ld	c,h
                            127 ;	genPlus
                            128 ;	Can't optimise plus by inc, falling back to the normal way
   0017 3E C4               129 	ld	a,#<_cursors
   0019 80                  130 	add	a,b
   001A 47                  131 	ld	b,a
   001B 3E 07               132 	ld	a,#>_cursors
   001D 89                  133 	adc	a,c
   001E 4F                  134 	ld	c,a
                            135 ;	genPlus
                            136 ;	AOP_STK for _set_cursor_sloc0_1_0
                            137 ;	genPlusIncr
                            138 ;	Can't optimise plus by inc, falling back to the normal way
   001F 58                  139 	ld	e,b
   0020 51                  140 	ld	d,c
   0021 21 01 00            141 	ld	hl,#0x0001
   0024 19                  142 	add	hl,de
   0025 7D                  143 	ld	a,l
   0026 54                  144 	ld	d,h
   0027 F8 0E               145 	lda	hl,14(sp)
                            146 ;	genPointerGet
                            147 ;	AOP_STK for _set_cursor_sloc0_1_0
                            148 ;	AOP_STK for _set_cursor_sloc1_1_0
   0029 22                  149 	ld	(hl+),a
   002A 72                  150 	ld	(hl),d
   002B 5F                  151 	ld	e,a
   002C 1A                  152 	ld	a,(de)
   002D 2B                  153 	dec	hl
   002E 2B                  154 	dec	hl
   002F 77                  155 	ld	(hl),a
                            156 ;	genCmpLt
                            157 ;	AOP_STK for _set_cursor_x_1_1
                            158 ;	AOP_STK for _set_cursor_sloc1_1_0
   0030 F8 12               159 	lda	hl,18(sp)
   0032 7E                  160 	ld	a,(hl)
   0033 F8 0D               161 	lda	hl,13(sp)
   0035 96                  162 	sub	a,(hl)
   0036 D2 F1 00            163 	jp	nc,00109$
                            164 ;	paint.c 267
                            165 ;	genAssign
                            166 ;	AOP_STK for _set_cursor_y_1_1
   0039 F8 11               167 	lda	hl,17(sp)
   003B 36 00               168 	ld	(hl),#0x00
                            169 ;	genLabel
   003D                     170 00101$:
                            171 ;	genPlus
                            172 ;	AOP_STK for _set_cursor_sloc0_1_0
                            173 ;	genPlusIncr
                            174 ;	Can't optimise plus by inc, falling back to the normal way
   003D 58                  175 	ld	e,b
   003E 51                  176 	ld	d,c
   003F 21 02 00            177 	ld	hl,#0x0002
   0042 19                  178 	add	hl,de
   0043 7D                  179 	ld	a,l
   0044 54                  180 	ld	d,h
   0045 F8 0E               181 	lda	hl,14(sp)
                            182 ;	genPointerGet
                            183 ;	AOP_STK for _set_cursor_sloc0_1_0
                            184 ;	AOP_STK for _set_cursor_sloc1_1_0
   0047 22                  185 	ld	(hl+),a
   0048 72                  186 	ld	(hl),d
   0049 5F                  187 	ld	e,a
   004A 1A                  188 	ld	a,(de)
   004B 2B                  189 	dec	hl
   004C 2B                  190 	dec	hl
   004D 77                  191 	ld	(hl),a
                            192 ;	genCmpLt
                            193 ;	AOP_STK for _set_cursor_y_1_1
                            194 ;	AOP_STK for _set_cursor_sloc1_1_0
                            195 ;	AOP_STK for _set_cursor_sloc2_1_0
   004E F8 11               196 	lda	hl,17(sp)
   0050 7E                  197 	ld	a,(hl)
   0051 F8 0D               198 	lda	hl,13(sp)
   0053 96                  199 	sub	a,(hl)
   0054 3E 00               200 	ld	a,#0x00
   0056 17                  201 	rla
   0057 2B                  202 	dec	hl
   0058 77                  203 	ld	(hl),a
                            204 ;	genIfx
                            205 ;	AOP_STK for _set_cursor_sloc2_1_0
   0059 AF                  206 	xor	a,a
   005A B6                  207 	or	a,(hl)
   005B CA EB 00            208 	jp	z,00107$
                            209 ;	paint.c 270
                            210 ;	genPointerGet
                            211 ;	AOP_STK for _set_cursor_sloc3_1_0
   005E 58                  212 	ld	e,b
   005F 51                  213 	ld	d,c
   0060 1A                  214 	ld	a,(de)
   0061 2B                  215 	dec	hl
                            216 ;	genPlus
                            217 ;	AOP_STK for _set_cursor_sloc3_1_0
                            218 ;	AOP_STK for _set_cursor_i_1_1
                            219 ;	AOP_STK for _set_cursor_sloc4_1_0
                            220 ;	Can't optimise plus by inc, falling back to the normal way
   0062 77                  221 	ld      (hl),a
                            222 ; Removed redundent load
   0063 F8 10               223 	lda	hl,16(sp)
   0065 86                  224 	add	a,(hl)
   0066 F8 0A               225 	lda	hl,10(sp)
                            226 ;	genCast
                            227 ;	AOP_STK for _set_cursor_sloc4_1_0
                            228 ;	AOP_STK for _set_cursor_sloc5_1_0
                            229 ; Removed redundent load
   0068 32                  230 	ld      (hl-),a
   0069 2B                  231 	dec	hl
   006A 22                  232 	ld	(hl+),a
   006B 36 00               233 	ld	(hl),#0x00
                            234 ;	genLeftShift
                            235 ;	AOP_STK for _set_cursor_sloc5_1_0
                            236 ;	AOP_STK for _set_cursor_sloc6_1_0
   006D 2B                  237 	dec	hl
   006E 7E                  238 	ld	a,(hl)
   006F 2B                  239 	dec	hl
   0070 2B                  240 	dec	hl
   0071 77                  241 	ld	(hl),a
   0072 F8 09               242 	lda	hl,9(sp)
   0074 7E                  243 	ld	a,(hl)
   0075 2B                  244 	dec	hl
   0076 2B                  245 	dec	hl
   0077 77                  246 	ld	(hl),a
   0078 3E 05               247 	ld	a,#0x04+1
   007A 18 07               248 	jr	00122$
   007C                     249 00121$:
   007C F8 06               250 	lda	hl,6(sp)
   007E CB 26               251 	sla	(hl)
   0080 23                  252 	inc	hl
   0081 CB 16               253 	rl	(hl)
   0083                     254 00122$:
   0083 3D                  255 	dec	a
   0084 20 F6               256 	jr	nz,00121$
                            257 ;	genPlus
                            258 ;	AOP_STK for _set_cursor_sloc6_1_0
                            259 ;	AOP_STK for _set_cursor_sloc7_1_0
                            260 ;	Can't optimise plus by inc, falling back to the normal way
   0086 11 E2 07            261 	ld	de,#_cursors_data
   0089 F8 06               262 	lda	hl,6(sp)
   008B 2A                  263 	ld	a,(hl+)
   008C 66                  264 	ld	h,(hl)
   008D 6F                  265 	ld	l,a
   008E 19                  266 	add	hl,de
   008F 7D                  267 	ld	a,l
   0090 54                  268 	ld	d,h
   0091 F8 04               269 	lda	hl,4(sp)
   0093 22                  270 	ld	(hl+),a
   0094 72                  271 	ld	(hl),d
                            272 ;	genCast
                            273 ;	AOP_STK for _set_cursor_sloc7_1_0
                            274 ;	AOP_STK for _set_cursor_sloc8_1_0
   0095 2B                  275 	dec	hl
   0096 7E                  276 	ld	a,(hl)
   0097 2B                  277 	dec	hl
   0098 2B                  278 	dec	hl
   0099 77                  279 	ld	(hl),a
   009A F8 05               280 	lda	hl,5(sp)
   009C 7E                  281 	ld	a,(hl)
   009D 2B                  282 	dec	hl
   009E 2B                  283 	dec	hl
   009F 77                  284 	ld	(hl),a
                            285 ;	paint.c 268
                            286 ;	genIpush
                            287 ; _saveRegsForCall: sendSetSize: 0 deInUse: 0 bcInUse: 1 deSending: 0
   00A0 C5                  288 	push	bc
                            289 ;	AOP_STK for _set_cursor_sloc8_1_0
   00A1 2B                  290 	dec	hl
   00A2 2A                  291 	ld	a,(hl+)
   00A3 66                  292 	ld	h,(hl)
   00A4 6F                  293 	ld	l,a
   00A5 E5                  294 	push	hl
                            295 ;	genIpush
   00A6 3E 01               296 	ld	a,#0x01
   00A8 F5                  297 	push	af
   00A9 33                  298 	inc	sp
                            299 ;	genIpush
                            300 ;	AOP_STK for _set_cursor_i_1_1
   00AA F8 15               301 	lda	hl,21(sp)
   00AC 7E                  302 	ld	a,(hl)
   00AD F5                  303 	push	af
   00AE 33                  304 	inc	sp
                            305 ;	genCall
   00AF CD 00 00            306 	call	_set_sprite_data
   00B2 E8 04               307 	lda	sp,4(sp)
   00B4 C1                  308 	pop	bc
                            309 ;	paint.c 271
                            310 ;	genIpush
                            311 ; _saveRegsForCall: sendSetSize: 0 deInUse: 0 bcInUse: 1 deSending: 0
   00B5 C5                  312 	push	bc
                            313 ;	AOP_STK for _set_cursor_i_1_1
   00B6 F8 12               314 	lda	hl,18(sp)
   00B8 7E                  315 	ld	a,(hl)
   00B9 F5                  316 	push	af
   00BA 33                  317 	inc	sp
                            318 ;	genIpush
                            319 ;	AOP_STK for _set_cursor_i_1_1
   00BB 7E                  320 	ld	a,(hl)
   00BC F5                  321 	push	af
   00BD 33                  322 	inc	sp
                            323 ;	genCall
   00BE CD 00 00            324 	call	_set_sprite_tile
   00C1 E8 02               325 	lda	sp,2(sp)
   00C3 C1                  326 	pop	bc
                            327 ;	paint.c 272
                            328 ;	genIpush
                            329 ; _saveRegsForCall: sendSetSize: 0 deInUse: 0 bcInUse: 1 deSending: 0
   00C4 C5                  330 	push	bc
   00C5 3E 10               331 	ld	a,#0x10
   00C7 F5                  332 	push	af
   00C8 33                  333 	inc	sp
                            334 ;	genIpush
                            335 ;	AOP_STK for _set_cursor_i_1_1
   00C9 F8 13               336 	lda	hl,19(sp)
   00CB 7E                  337 	ld	a,(hl)
   00CC F5                  338 	push	af
   00CD 33                  339 	inc	sp
                            340 ;	genCall
   00CE CD 00 00            341 	call	_set_sprite_prop
   00D1 E8 02               342 	lda	sp,2(sp)
   00D3 C1                  343 	pop	bc
                            344 ;	paint.c 273
                            345 ;	genPlus
                            346 ;	AOP_STK for _set_cursor_i_1_1
                            347 ;	AOP_STK for _set_cursor_sloc9_1_0
                            348 ;	genPlusIncr
                            349 ;	Can't optimise plus by inc, falling back to the normal way
   00D4 F8 10               350 	lda	hl,16(sp)
   00D6 7E                  351 	ld	a,(hl)
   00D7 C6 01               352 	add	a,#0x01
   00D9 F8 01               353 	lda	hl,1(sp)
                            354 ;	genAssign
                            355 ;	AOP_STK for _set_cursor_sloc9_1_0
                            356 ;	AOP_STK for _set_cursor_i_1_1
   00DB 77                  357 	ld      (hl),a
                            358 ; Removed redundent load
   00DC F8 10               359 	lda	hl,16(sp)
                            360 ;	paint.c 267
                            361 ;	genPlus
                            362 ;	AOP_STK for _set_cursor_y_1_1
                            363 ;	AOP_STK for _set_cursor_sloc10_1_0
                            364 ;	genPlusIncr
                            365 ;	Can't optimise plus by inc, falling back to the normal way
   00DE 22                  366 	ld	(hl+),a
   00DF 7E                  367 	ld	a,(hl)
   00E0 C6 01               368 	add	a,#0x01
   00E2 F8 00               369 	lda	hl,0(sp)
                            370 ;	genAssign
                            371 ;	AOP_STK for _set_cursor_sloc10_1_0
                            372 ;	AOP_STK for _set_cursor_y_1_1
   00E4 77                  373 	ld      (hl),a
                            374 ; Removed redundent load
   00E5 F8 11               375 	lda	hl,17(sp)
   00E7 77                  376 	ld	(hl),a
                            377 ;	genGoto
   00E8 C3 3D 00            378 	jp	00101$
                            379 ;	genLabel
   00EB                     380 00107$:
                            381 ;	paint.c 266
                            382 ;	genPlus
                            383 ;	AOP_STK for _set_cursor_x_1_1
                            384 ;	genPlusIncr
   00EB F8 12               385 	lda	hl,18(sp)
   00ED 34                  386 	inc	(hl)
                            387 ;	genGoto
   00EE C3 0A 00            388 	jp	00105$
                            389 ;	genLabel
   00F1                     390 00109$:
                            391 ;	paint.c 276
                            392 ;	genCmpLt
                            393 ;	AOP_STK for _set_cursor_i_1_1
   00F1 F8 10               394 	lda	hl,16(sp)
   00F3 7E                  395 	ld	a,(hl)
   00F4 FE 04               396 	cp	#0x04
   00F6 D2 0D 01            397 	jp	nc,00113$
                            398 ;	paint.c 277
                            399 ;	genIpush
                            400 ; _saveRegsForCall: sendSetSize: 0 deInUse: 0 bcInUse: 0 deSending: 0
   00F9 21 00 00            401 	ld	hl,#0x0000
   00FC E5                  402 	push	hl
                            403 ;	genIpush
                            404 ;	AOP_STK for _set_cursor_i_1_1
   00FD F8 12               405 	lda	hl,18(sp)
   00FF 7E                  406 	ld	a,(hl)
   0100 F5                  407 	push	af
   0101 33                  408 	inc	sp
                            409 ;	genCall
   0102 CD 00 00            410 	call	_move_sprite
   0105 E8 03               411 	lda	sp,3(sp)
                            412 ;	paint.c 276
                            413 ;	genPlus
                            414 ;	AOP_STK for _set_cursor_i_1_1
                            415 ;	genPlusIncr
   0107 F8 10               416 	lda	hl,16(sp)
   0109 34                  417 	inc	(hl)
                            418 ;	genGoto
   010A C3 F1 00            419 	jp	00109$
                            420 ;	genLabel
   010D                     421 00113$:
                            422 ;	genEndFunction
   010D E8 13               423 	lda	sp,19(sp)
   010F C9                  424 	ret
   0110                     425 ___set_cursor_end:
   0110                     426 _icons:
   0110 00                  427 	.db #0x00
   0111 00                  428 	.db #0x00
   0112 00                  429 	.db #0x00
   0113 02                  430 	.db #0x02
   0114 02                  431 	.db #0x02
   0115 0A                  432 	.db #0x0A
   0116 02                  433 	.db #0x02
   0117 01                  434 	.db #0x01
   0118 01                  435 	.db #0x01
   0119 01                  436 	.db #0x01
   011A 04                  437 	.db #0x04
   011B 02                  438 	.db #0x02
   011C 00                  439 	.db #0x00
   011D 02                  440 	.db #0x02
   011E 02                  441 	.db #0x02
   011F 0E                  442 	.db #0x0E
   0120 03                  443 	.db #0x03
   0121 00                  444 	.db #0x00
   0122 00                  445 	.db #0x00
   0123 02                  446 	.db #0x02
   0124 08                  447 	.db #0x08
   0125 00                  448 	.db #0x00
   0126 02                  449 	.db #0x02
   0127 02                  450 	.db #0x02
   0128 02                  451 	.db #0x02
   0129 00                  452 	.db #0x00
   012A 04                  453 	.db #0x04
   012B 03                  454 	.db #0x03
   012C 03                  455 	.db #0x03
   012D 03                  456 	.db #0x03
   012E 0C                  457 	.db #0x0C
   012F 02                  458 	.db #0x02
   0130 02                  459 	.db #0x02
   0131 02                  460 	.db #0x02
   0132 02                  461 	.db #0x02
   0133 01                  462 	.db #0x01
   0134 05                  463 	.db #0x05
   0135 02                  464 	.db #0x02
   0136 02                  465 	.db #0x02
   0137 04                  466 	.db #0x04
   0138 10                  467 	.db #0x10
   0139 00                  468 	.db #0x00
   013A 04                  469 	.db #0x04
   013B 02                  470 	.db #0x02
   013C 02                  471 	.db #0x02
   013D 02                  472 	.db #0x02
   013E 06                  473 	.db #0x06
   013F 05                  474 	.db #0x05
   0140 05                  475 	.db #0x05
   0141 05                  476 	.db #0x05
   0142 14                  477 	.db #0x14
   0143 02                  478 	.db #0x02
   0144 04                  479 	.db #0x04
   0145 02                  480 	.db #0x02
   0146 02                  481 	.db #0x02
   0147 03                  482 	.db #0x03
   0148 07                  483 	.db #0x07
   0149 04                  484 	.db #0x04
   014A 04                  485 	.db #0x04
   014B 05                  486 	.db #0x05
   014C 18                  487 	.db #0x18
   014D 00                  488 	.db #0x00
   014E 06                  489 	.db #0x06
   014F 02                  490 	.db #0x02
   0150 02                  491 	.db #0x02
   0151 04                  492 	.db #0x04
   0152 08                  493 	.db #0x08
   0153 07                  494 	.db #0x07
   0154 07                  495 	.db #0x07
   0155 05                  496 	.db #0x05
   0156 1C                  497 	.db #0x1C
   0157 02                  498 	.db #0x02
   0158 06                  499 	.db #0x06
   0159 02                  500 	.db #0x02
   015A 02                  501 	.db #0x02
   015B 05                  502 	.db #0x05
   015C 09                  503 	.db #0x09
   015D 06                  504 	.db #0x06
   015E 06                  505 	.db #0x06
   015F 05                  506 	.db #0x05
   0160 20                  507 	.db #0x20
   0161 00                  508 	.db #0x00
   0162 08                  509 	.db #0x08
   0163 02                  510 	.db #0x02
   0164 02                  511 	.db #0x02
   0165 06                  512 	.db #0x06
   0166 0A                  513 	.db #0x0A
   0167 09                  514 	.db #0x09
   0168 09                  515 	.db #0x09
   0169 05                  516 	.db #0x05
   016A 24                  517 	.db #0x24
   016B 02                  518 	.db #0x02
   016C 08                  519 	.db #0x08
   016D 02                  520 	.db #0x02
   016E 02                  521 	.db #0x02
   016F 07                  522 	.db #0x07
   0170 0E                  523 	.db #0x0E
   0171 08                  524 	.db #0x08
   0172 08                  525 	.db #0x08
   0173 05                  526 	.db #0x05
   0174 28                  527 	.db #0x28
   0175 00                  528 	.db #0x00
   0176 0A                  529 	.db #0x0A
   0177 01                  530 	.db #0x01
   0178 01                  531 	.db #0x01
   0179 08                  532 	.db #0x08
   017A 0B                  533 	.db #0x0B
   017B 10                  534 	.db #0x10
   017C 0C                  535 	.db #0x0C
   017D 00                  536 	.db #0x00
   017E 29                  537 	.db #0x29
   017F 00                  538 	.db #0x00
   0180 0B                  539 	.db #0x0B
   0181 01                  540 	.db #0x01
   0182 01                  541 	.db #0x01
   0183 0A                  542 	.db #0x0A
   0184 00                  543 	.db #0x00
   0185 11                  544 	.db #0x11
   0186 0D                  545 	.db #0x0D
   0187 00                  546 	.db #0x00
   0188 2A                  547 	.db #0x2A
   0189 01                  548 	.db #0x01
   018A 0A                  549 	.db #0x0A
   018B 01                  550 	.db #0x01
   018C 01                  551 	.db #0x01
   018D 08                  552 	.db #0x08
   018E 0D                  553 	.db #0x0D
   018F 0A                  554 	.db #0x0A
   0190 0E                  555 	.db #0x0E
   0191 00                  556 	.db #0x00
   0192 2B                  557 	.db #0x2B
   0193 01                  558 	.db #0x01
   0194 0B                  559 	.db #0x0B
   0195 01                  560 	.db #0x01
   0196 01                  561 	.db #0x01
   0197 0C                  562 	.db #0x0C
   0198 00                  563 	.db #0x00
   0199 0B                  564 	.db #0x0B
   019A 0F                  565 	.db #0x0F
   019B 00                  566 	.db #0x00
   019C 2C                  567 	.db #0x2C
   019D 02                  568 	.db #0x02
   019E 0A                  569 	.db #0x0A
   019F 01                  570 	.db #0x01
   01A0 01                  571 	.db #0x01
   01A1 09                  572 	.db #0x09
   01A2 0F                  573 	.db #0x0F
   01A3 0C                  574 	.db #0x0C
   01A4 10                  575 	.db #0x10
   01A5 00                  576 	.db #0x00
   01A6 2D                  577 	.db #0x2D
   01A7 02                  578 	.db #0x02
   01A8 0B                  579 	.db #0x0B
   01A9 01                  580 	.db #0x01
   01AA 01                  581 	.db #0x01
   01AB 0E                  582 	.db #0x0E
   01AC 01                  583 	.db #0x01
   01AD 0D                  584 	.db #0x0D
   01AE 11                  585 	.db #0x11
   01AF 00                  586 	.db #0x00
   01B0 2E                  587 	.db #0x2E
   01B1 03                  588 	.db #0x03
   01B2 0A                  589 	.db #0x0A
   01B3 01                  590 	.db #0x01
   01B4 01                  591 	.db #0x01
   01B5 09                  592 	.db #0x09
   01B6 11                  593 	.db #0x11
   01B7 0E                  594 	.db #0x0E
   01B8 0A                  595 	.db #0x0A
   01B9 00                  596 	.db #0x00
   01BA 2F                  597 	.db #0x2F
   01BB 03                  598 	.db #0x03
   01BC 0B                  599 	.db #0x0B
   01BD 01                  600 	.db #0x01
   01BE 01                  601 	.db #0x01
   01BF 10                  602 	.db #0x10
   01C0 01                  603 	.db #0x01
   01C1 0F                  604 	.db #0x0F
   01C2 0B                  605 	.db #0x0B
   01C3 00                  606 	.db #0x00
   01C4                     607 _data:
   01C4 00                  608 	.db #0x00
   01C5 00                  609 	.db #0x00
   01C6 7F                  610 	.db #0x7F
   01C7 00                  611 	.db #0x00
   01C8 7F                  612 	.db #0x7F
   01C9 00                  613 	.db #0x00
   01CA 7F                  614 	.db #0x7F
   01CB 00                  615 	.db #0x00
   01CC 7F                  616 	.db #0x7F
   01CD 00                  617 	.db #0x00
   01CE 7F                  618 	.db #0x7F
   01CF 00                  619 	.db #0x00
   01D0 7F                  620 	.db #0x7F
   01D1 00                  621 	.db #0x00
   01D2 7F                  622 	.db #0x7F
   01D3 01                  623 	.db #0x01
   01D4 7E                  624 	.db #0x7E
   01D5 02                  625 	.db #0x02
   01D6 7D                  626 	.db #0x7D
   01D7 05                  627 	.db #0x05
   01D8 7B                  628 	.db #0x7B
   01D9 0A                  629 	.db #0x0A
   01DA 77                  630 	.db #0x77
   01DB 14                  631 	.db #0x14
   01DC 7F                  632 	.db #0x7F
   01DD 18                  633 	.db #0x18
   01DE 7F                  634 	.db #0x7F
   01DF 27                  635 	.db #0x27
   01E0 7F                  636 	.db #0x7F
   01E1 00                  637 	.db #0x00
   01E2 00                  638 	.db #0x00
   01E3 7F                  639 	.db #0x7F
   01E4 00                  640 	.db #0x00
   01E5 00                  641 	.db #0x00
   01E6 FE                  642 	.db #0xFE
   01E7 01                  643 	.db #0x01
   01E8 FE                  644 	.db #0xFE
   01E9 0D                  645 	.db #0x0D
   01EA F6                  646 	.db #0xF6
   01EB 15                  647 	.db #0x15
   01EC EE                  648 	.db #0xEE
   01ED 29                  649 	.db #0x29
   01EE DE                  650 	.db #0xDE
   01EF 51                  651 	.db #0x51
   01F0 BE                  652 	.db #0xBE
   01F1 A1                  653 	.db #0xA1
   01F2 7E                  654 	.db #0x7E
   01F3 41                  655 	.db #0x41
   01F4 FE                  656 	.db #0xFE
   01F5 81                  657 	.db #0x81
   01F6 FE                  658 	.db #0xFE
   01F7 01                  659 	.db #0x01
   01F8 FE                  660 	.db #0xFE
   01F9 01                  661 	.db #0x01
   01FA FE                  662 	.db #0xFE
   01FB 01                  663 	.db #0x01
   01FC FE                  664 	.db #0xFE
   01FD 01                  665 	.db #0x01
   01FE FE                  666 	.db #0xFE
   01FF FD                  667 	.db #0xFD
   0200 FE                  668 	.db #0xFE
   0201 01                  669 	.db #0x01
   0202 00                  670 	.db #0x00
   0203 FF                  671 	.db #0xFF
   0204 00                  672 	.db #0x00
   0205 00                  673 	.db #0x00
   0206 7F                  674 	.db #0x7F
   0207 00                  675 	.db #0x00
   0208 7F                  676 	.db #0x7F
   0209 00                  677 	.db #0x00
   020A 7F                  678 	.db #0x7F
   020B 00                  679 	.db #0x00
   020C 7F                  680 	.db #0x7F
   020D 00                  681 	.db #0x00
   020E 7F                  682 	.db #0x7F
   020F 00                  683 	.db #0x00
   0210 7F                  684 	.db #0x7F
   0211 00                  685 	.db #0x00
   0212 7F                  686 	.db #0x7F
   0213 01                  687 	.db #0x01
   0214 7E                  688 	.db #0x7E
   0215 02                  689 	.db #0x02
   0216 7D                  690 	.db #0x7D
   0217 0D                  691 	.db #0x0D
   0218 7F                  692 	.db #0x7F
   0219 1E                  693 	.db #0x1E
   021A 7F                  694 	.db #0x7F
   021B 1E                  695 	.db #0x1E
   021C 7F                  696 	.db #0x7F
   021D 1D                  697 	.db #0x1D
   021E 7F                  698 	.db #0x7F
   021F 11                  699 	.db #0x11
   0220 7F                  700 	.db #0x7F
   0221 00                  701 	.db #0x00
   0222 00                  702 	.db #0x00
   0223 7F                  703 	.db #0x7F
   0224 00                  704 	.db #0x00
   0225 00                  705 	.db #0x00
   0226 FE                  706 	.db #0xFE
   0227 01                  707 	.db #0x01
   0228 FE                  708 	.db #0xFE
   0229 0D                  709 	.db #0x0D
   022A F6                  710 	.db #0xF6
   022B 15                  711 	.db #0x15
   022C EE                  712 	.db #0xEE
   022D 29                  713 	.db #0x29
   022E DE                  714 	.db #0xDE
   022F 51                  715 	.db #0x51
   0230 BE                  716 	.db #0xBE
   0231 A1                  717 	.db #0xA1
   0232 7E                  718 	.db #0x7E
   0233 41                  719 	.db #0x41
   0234 FE                  720 	.db #0xFE
   0235 81                  721 	.db #0x81
   0236 FE                  722 	.db #0xFE
   0237 01                  723 	.db #0x01
   0238 FE                  724 	.db #0xFE
   0239 01                  725 	.db #0x01
   023A FE                  726 	.db #0xFE
   023B 01                  727 	.db #0x01
   023C FE                  728 	.db #0xFE
   023D FD                  729 	.db #0xFD
   023E FE                  730 	.db #0xFE
   023F FD                  731 	.db #0xFD
   0240 FE                  732 	.db #0xFE
   0241 01                  733 	.db #0x01
   0242 00                  734 	.db #0x00
   0243 FF                  735 	.db #0xFF
   0244 00                  736 	.db #0x00
   0245 00                  737 	.db #0x00
   0246 7F                  738 	.db #0x7F
   0247 00                  739 	.db #0x00
   0248 7F                  740 	.db #0x7F
   0249 00                  741 	.db #0x00
   024A 7F                  742 	.db #0x7F
   024B 01                  743 	.db #0x01
   024C 7F                  744 	.db #0x7F
   024D 02                  745 	.db #0x02
   024E 7E                  746 	.db #0x7E
   024F 0C                  747 	.db #0x0C
   0250 7D                  748 	.db #0x7D
   0251 18                  749 	.db #0x18
   0252 7E                  750 	.db #0x7E
   0253 1D                  751 	.db #0x1D
   0254 7F                  752 	.db #0x7F
   0255 1B                  753 	.db #0x1B
   0256 7F                  754 	.db #0x7F
   0257 19                  755 	.db #0x19
   0258 7F                  756 	.db #0x7F
   0259 18                  757 	.db #0x18
   025A 7F                  758 	.db #0x7F
   025B 08                  759 	.db #0x08
   025C 7F                  760 	.db #0x7F
   025D 08                  761 	.db #0x08
   025E 7F                  762 	.db #0x7F
   025F 08                  763 	.db #0x08
   0260 7F                  764 	.db #0x7F
   0261 00                  765 	.db #0x00
   0262 00                  766 	.db #0x00
   0263 7F                  767 	.db #0x7F
   0264 00                  768 	.db #0x00
   0265 00                  769 	.db #0x00
   0266 FE                  770 	.db #0xFE
   0267 01                  771 	.db #0x01
   0268 FE                  772 	.db #0xFE
   0269 81                  773 	.db #0x81
   026A FE                  774 	.db #0xFE
   026B 41                  775 	.db #0x41
   026C 7E                  776 	.db #0x7E
   026D 21                  777 	.db #0x21
   026E BE                  778 	.db #0xBE
   026F 71                  779 	.db #0x71
   0270 5E                  780 	.db #0x5E
   0271 E9                  781 	.db #0xE9
   0272 AE                  782 	.db #0xAE
   0273 C5                  783 	.db #0xC5
   0274 5E                  784 	.db #0x5E
   0275 89                  785 	.db #0x89
   0276 BE                  786 	.db #0xBE
   0277 11                  787 	.db #0x11
   0278 FE                  788 	.db #0xFE
   0279 A1                  789 	.db #0xA1
   027A FE                  790 	.db #0xFE
   027B 41                  791 	.db #0x41
   027C FE                  792 	.db #0xFE
   027D 01                  793 	.db #0x01
   027E FE                  794 	.db #0xFE
   027F 01                  795 	.db #0x01
   0280 FE                  796 	.db #0xFE
   0281 01                  797 	.db #0x01
   0282 00                  798 	.db #0x00
   0283 FF                  799 	.db #0xFF
   0284 00                  800 	.db #0x00
   0285 00                  801 	.db #0x00
   0286 7F                  802 	.db #0x7F
   0287 00                  803 	.db #0x00
   0288 7F                  804 	.db #0x7F
   0289 00                  805 	.db #0x00
   028A 7F                  806 	.db #0x7F
   028B 00                  807 	.db #0x00
   028C 7F                  808 	.db #0x7F
   028D 00                  809 	.db #0x00
   028E 7F                  810 	.db #0x7F
   028F 01                  811 	.db #0x01
   0290 7E                  812 	.db #0x7E
   0291 02                  813 	.db #0x02
   0292 7C                  814 	.db #0x7C
   0293 04                  815 	.db #0x04
   0294 78                  816 	.db #0x78
   0295 08                  817 	.db #0x08
   0296 7F                  818 	.db #0x7F
   0297 1F                  819 	.db #0x1F
   0298 71                  820 	.db #0x71
   0299 11                  821 	.db #0x11
   029A 7F                  822 	.db #0x7F
   029B 1F                  823 	.db #0x1F
   029C 7F                  824 	.db #0x7F
   029D 00                  825 	.db #0x00
   029E 7F                  826 	.db #0x7F
   029F 00                  827 	.db #0x00
   02A0 7F                  828 	.db #0x7F
   02A1 00                  829 	.db #0x00
   02A2 00                  830 	.db #0x00
   02A3 7F                  831 	.db #0x7F
   02A4 00                  832 	.db #0x00
   02A5 00                  833 	.db #0x00
   02A6 FE                  834 	.db #0xFE
   02A7 01                  835 	.db #0x01
   02A8 FE                  836 	.db #0xFE
   02A9 01                  837 	.db #0x01
   02AA FE                  838 	.db #0xFE
   02AB 01                  839 	.db #0x01
   02AC FE                  840 	.db #0xFE
   02AD F9                  841 	.db #0xF9
   02AE 1E                  842 	.db #0x1E
   02AF 19                  843 	.db #0x19
   02B0 2E                  844 	.db #0x2E
   02B1 29                  845 	.db #0x29
   02B2 5E                  846 	.db #0x5E
   02B3 51                  847 	.db #0x51
   02B4 BE                  848 	.db #0xBE
   02B5 A1                  849 	.db #0xA1
   02B6 7E                  850 	.db #0x7E
   02B7 41                  851 	.db #0x41
   02B8 FE                  852 	.db #0xFE
   02B9 81                  853 	.db #0x81
   02BA FE                  854 	.db #0xFE
   02BB 01                  855 	.db #0x01
   02BC FE                  856 	.db #0xFE
   02BD 01                  857 	.db #0x01
   02BE FE                  858 	.db #0xFE
   02BF 01                  859 	.db #0x01
   02C0 FE                  860 	.db #0xFE
   02C1 01                  861 	.db #0x01
   02C2 00                  862 	.db #0x00
   02C3 FF                  863 	.db #0xFF
   02C4 00                  864 	.db #0x00
   02C5 00                  865 	.db #0x00
   02C6 7F                  866 	.db #0x7F
   02C7 00                  867 	.db #0x00
   02C8 7F                  868 	.db #0x7F
   02C9 20                  869 	.db #0x20
   02CA 7F                  870 	.db #0x7F
   02CB 10                  871 	.db #0x10
   02CC 7F                  872 	.db #0x7F
   02CD 08                  873 	.db #0x08
   02CE 7F                  874 	.db #0x7F
   02CF 04                  875 	.db #0x04
   02D0 7F                  876 	.db #0x7F
   02D1 02                  877 	.db #0x02
   02D2 7F                  878 	.db #0x7F
   02D3 01                  879 	.db #0x01
   02D4 7F                  880 	.db #0x7F
   02D5 00                  881 	.db #0x00
   02D6 7F                  882 	.db #0x7F
   02D7 00                  883 	.db #0x00
   02D8 7F                  884 	.db #0x7F
   02D9 00                  885 	.db #0x00
   02DA 7F                  886 	.db #0x7F
   02DB 00                  887 	.db #0x00
   02DC 7F                  888 	.db #0x7F
   02DD 00                  889 	.db #0x00
   02DE 7F                  890 	.db #0x7F
   02DF 00                  891 	.db #0x00
   02E0 7F                  892 	.db #0x7F
   02E1 00                  893 	.db #0x00
   02E2 00                  894 	.db #0x00
   02E3 7F                  895 	.db #0x7F
   02E4 00                  896 	.db #0x00
   02E5 00                  897 	.db #0x00
   02E6 FE                  898 	.db #0xFE
   02E7 01                  899 	.db #0x01
   02E8 FE                  900 	.db #0xFE
   02E9 01                  901 	.db #0x01
   02EA FE                  902 	.db #0xFE
   02EB 01                  903 	.db #0x01
   02EC FE                  904 	.db #0xFE
   02ED 01                  905 	.db #0x01
   02EE FE                  906 	.db #0xFE
   02EF 01                  907 	.db #0x01
   02F0 FE                  908 	.db #0xFE
   02F1 01                  909 	.db #0x01
   02F2 FE                  910 	.db #0xFE
   02F3 01                  911 	.db #0x01
   02F4 FE                  912 	.db #0xFE
   02F5 81                  913 	.db #0x81
   02F6 FE                  914 	.db #0xFE
   02F7 41                  915 	.db #0x41
   02F8 FE                  916 	.db #0xFE
   02F9 21                  917 	.db #0x21
   02FA FE                  918 	.db #0xFE
   02FB 11                  919 	.db #0x11
   02FC FE                  920 	.db #0xFE
   02FD 09                  921 	.db #0x09
   02FE FE                  922 	.db #0xFE
   02FF 05                  923 	.db #0x05
   0300 FE                  924 	.db #0xFE
   0301 01                  925 	.db #0x01
   0302 00                  926 	.db #0x00
   0303 FF                  927 	.db #0xFF
   0304 00                  928 	.db #0x00
   0305 00                  929 	.db #0x00
   0306 7F                  930 	.db #0x7F
   0307 00                  931 	.db #0x00
   0308 7F                  932 	.db #0x7F
   0309 00                  933 	.db #0x00
   030A 7F                  934 	.db #0x7F
   030B 1E                  935 	.db #0x1E
   030C 7F                  936 	.db #0x7F
   030D 01                  937 	.db #0x01
   030E 7F                  938 	.db #0x7F
   030F 00                  939 	.db #0x00
   0310 7F                  940 	.db #0x7F
   0311 00                  941 	.db #0x00
   0312 7F                  942 	.db #0x7F
   0313 00                  943 	.db #0x00
   0314 7F                  944 	.db #0x7F
   0315 00                  945 	.db #0x00
   0316 7F                  946 	.db #0x7F
   0317 00                  947 	.db #0x00
   0318 7F                  948 	.db #0x7F
   0319 00                  949 	.db #0x00
   031A 7F                  950 	.db #0x7F
   031B 00                  951 	.db #0x00
   031C 7F                  952 	.db #0x7F
   031D 00                  953 	.db #0x00
   031E 7F                  954 	.db #0x7F
   031F 00                  955 	.db #0x00
   0320 7F                  956 	.db #0x7F
   0321 00                  957 	.db #0x00
   0322 00                  958 	.db #0x00
   0323 7F                  959 	.db #0x7F
   0324 00                  960 	.db #0x00
   0325 00                  961 	.db #0x00
   0326 FE                  962 	.db #0xFE
   0327 01                  963 	.db #0x01
   0328 FE                  964 	.db #0xFE
   0329 01                  965 	.db #0x01
   032A FE                  966 	.db #0xFE
   032B 01                  967 	.db #0x01
   032C FE                  968 	.db #0xFE
   032D 81                  969 	.db #0x81
   032E FE                  970 	.db #0xFE
   032F 41                  971 	.db #0x41
   0330 FE                  972 	.db #0xFE
   0331 21                  973 	.db #0x21
   0332 FE                  974 	.db #0xFE
   0333 11                  975 	.db #0x11
   0334 FE                  976 	.db #0xFE
   0335 11                  977 	.db #0x11
   0336 FE                  978 	.db #0xFE
   0337 09                  979 	.db #0x09
   0338 FE                  980 	.db #0xFE
   0339 09                  981 	.db #0x09
   033A FE                  982 	.db #0xFE
   033B 09                  983 	.db #0x09
   033C FE                  984 	.db #0xFE
   033D 09                  985 	.db #0x09
   033E FE                  986 	.db #0xFE
   033F 01                  987 	.db #0x01
   0340 FE                  988 	.db #0xFE
   0341 01                  989 	.db #0x01
   0342 00                  990 	.db #0x00
   0343 FF                  991 	.db #0xFF
   0344 00                  992 	.db #0x00
   0345 00                  993 	.db #0x00
   0346 7F                  994 	.db #0x7F
   0347 00                  995 	.db #0x00
   0348 7F                  996 	.db #0x7F
   0349 00                  997 	.db #0x00
   034A 7F                  998 	.db #0x7F
   034B 3F                  999 	.db #0x3F
   034C 7F                 1000 	.db #0x7F
   034D 20                 1001 	.db #0x20
   034E 7F                 1002 	.db #0x7F
   034F 20                 1003 	.db #0x20
   0350 7F                 1004 	.db #0x7F
   0351 20                 1005 	.db #0x20
   0352 7F                 1006 	.db #0x7F
   0353 20                 1007 	.db #0x20
   0354 7F                 1008 	.db #0x7F
   0355 20                 1009 	.db #0x20
   0356 7F                 1010 	.db #0x7F
   0357 20                 1011 	.db #0x20
   0358 7F                 1012 	.db #0x7F
   0359 20                 1013 	.db #0x20
   035A 7F                 1014 	.db #0x7F
   035B 20                 1015 	.db #0x20
   035C 7F                 1016 	.db #0x7F
   035D 3F                 1017 	.db #0x3F
   035E 7F                 1018 	.db #0x7F
   035F 00                 1019 	.db #0x00
   0360 7F                 1020 	.db #0x7F
   0361 00                 1021 	.db #0x00
   0362 00                 1022 	.db #0x00
   0363 7F                 1023 	.db #0x7F
   0364 00                 1024 	.db #0x00
   0365 00                 1025 	.db #0x00
   0366 FE                 1026 	.db #0xFE
   0367 01                 1027 	.db #0x01
   0368 FE                 1028 	.db #0xFE
   0369 01                 1029 	.db #0x01
   036A FE                 1030 	.db #0xFE
   036B FD                 1031 	.db #0xFD
   036C FE                 1032 	.db #0xFE
   036D 05                 1033 	.db #0x05
   036E FE                 1034 	.db #0xFE
   036F 05                 1035 	.db #0x05
   0370 FE                 1036 	.db #0xFE
   0371 05                 1037 	.db #0x05
   0372 FE                 1038 	.db #0xFE
   0373 05                 1039 	.db #0x05
   0374 FE                 1040 	.db #0xFE
   0375 05                 1041 	.db #0x05
   0376 FE                 1042 	.db #0xFE
   0377 05                 1043 	.db #0x05
   0378 FE                 1044 	.db #0xFE
   0379 05                 1045 	.db #0x05
   037A FE                 1046 	.db #0xFE
   037B 05                 1047 	.db #0x05
   037C FE                 1048 	.db #0xFE
   037D FD                 1049 	.db #0xFD
   037E FE                 1050 	.db #0xFE
   037F 01                 1051 	.db #0x01
   0380 FE                 1052 	.db #0xFE
   0381 01                 1053 	.db #0x01
   0382 00                 1054 	.db #0x00
   0383 FF                 1055 	.db #0xFF
   0384 00                 1056 	.db #0x00
   0385 00                 1057 	.db #0x00
   0386 7F                 1058 	.db #0x7F
   0387 00                 1059 	.db #0x00
   0388 7F                 1060 	.db #0x7F
   0389 00                 1061 	.db #0x00
   038A 7F                 1062 	.db #0x7F
   038B 03                 1063 	.db #0x03
   038C 7F                 1064 	.db #0x7F
   038D 0C                 1065 	.db #0x0C
   038E 7F                 1066 	.db #0x7F
   038F 10                 1067 	.db #0x10
   0390 7F                 1068 	.db #0x7F
   0391 20                 1069 	.db #0x20
   0392 7F                 1070 	.db #0x7F
   0393 20                 1071 	.db #0x20
   0394 7F                 1072 	.db #0x7F
   0395 20                 1073 	.db #0x20
   0396 7F                 1074 	.db #0x7F
   0397 20                 1075 	.db #0x20
   0398 7F                 1076 	.db #0x7F
   0399 10                 1077 	.db #0x10
   039A 7F                 1078 	.db #0x7F
   039B 0C                 1079 	.db #0x0C
   039C 7F                 1080 	.db #0x7F
   039D 03                 1081 	.db #0x03
   039E 7F                 1082 	.db #0x7F
   039F 00                 1083 	.db #0x00
   03A0 7F                 1084 	.db #0x7F
   03A1 00                 1085 	.db #0x00
   03A2 00                 1086 	.db #0x00
   03A3 7F                 1087 	.db #0x7F
   03A4 00                 1088 	.db #0x00
   03A5 00                 1089 	.db #0x00
   03A6 FE                 1090 	.db #0xFE
   03A7 01                 1091 	.db #0x01
   03A8 FE                 1092 	.db #0xFE
   03A9 01                 1093 	.db #0x01
   03AA FE                 1094 	.db #0xFE
   03AB C1                 1095 	.db #0xC1
   03AC FE                 1096 	.db #0xFE
   03AD 31                 1097 	.db #0x31
   03AE FE                 1098 	.db #0xFE
   03AF 09                 1099 	.db #0x09
   03B0 FE                 1100 	.db #0xFE
   03B1 05                 1101 	.db #0x05
   03B2 FE                 1102 	.db #0xFE
   03B3 05                 1103 	.db #0x05
   03B4 FE                 1104 	.db #0xFE
   03B5 05                 1105 	.db #0x05
   03B6 FE                 1106 	.db #0xFE
   03B7 05                 1107 	.db #0x05
   03B8 FE                 1108 	.db #0xFE
   03B9 09                 1109 	.db #0x09
   03BA FE                 1110 	.db #0xFE
   03BB 31                 1111 	.db #0x31
   03BC FE                 1112 	.db #0xFE
   03BD C1                 1113 	.db #0xC1
   03BE FE                 1114 	.db #0xFE
   03BF 01                 1115 	.db #0x01
   03C0 FE                 1116 	.db #0xFE
   03C1 01                 1117 	.db #0x01
   03C2 00                 1118 	.db #0x00
   03C3 FF                 1119 	.db #0xFF
   03C4 00                 1120 	.db #0x00
   03C5 00                 1121 	.db #0x00
   03C6 7F                 1122 	.db #0x7F
   03C7 00                 1123 	.db #0x00
   03C8 7F                 1124 	.db #0x7F
   03C9 00                 1125 	.db #0x00
   03CA 7F                 1126 	.db #0x7F
   03CB 3F                 1127 	.db #0x3F
   03CC 6A                 1128 	.db #0x6A
   03CD 3F                 1129 	.db #0x3F
   03CE 75                 1130 	.db #0x75
   03CF 3F                 1131 	.db #0x3F
   03D0 6A                 1132 	.db #0x6A
   03D1 3F                 1133 	.db #0x3F
   03D2 75                 1134 	.db #0x75
   03D3 3F                 1135 	.db #0x3F
   03D4 6A                 1136 	.db #0x6A
   03D5 3F                 1137 	.db #0x3F
   03D6 75                 1138 	.db #0x75
   03D7 3F                 1139 	.db #0x3F
   03D8 6A                 1140 	.db #0x6A
   03D9 3F                 1141 	.db #0x3F
   03DA 75                 1142 	.db #0x75
   03DB 3F                 1143 	.db #0x3F
   03DC 7F                 1144 	.db #0x7F
   03DD 3F                 1145 	.db #0x3F
   03DE 7F                 1146 	.db #0x7F
   03DF 00                 1147 	.db #0x00
   03E0 7F                 1148 	.db #0x7F
   03E1 00                 1149 	.db #0x00
   03E2 00                 1150 	.db #0x00
   03E3 7F                 1151 	.db #0x7F
   03E4 00                 1152 	.db #0x00
   03E5 00                 1153 	.db #0x00
   03E6 FE                 1154 	.db #0xFE
   03E7 01                 1155 	.db #0x01
   03E8 FE                 1156 	.db #0xFE
   03E9 01                 1157 	.db #0x01
   03EA FE                 1158 	.db #0xFE
   03EB FD                 1159 	.db #0xFD
   03EC AE                 1160 	.db #0xAE
   03ED FD                 1161 	.db #0xFD
   03EE 56                 1162 	.db #0x56
   03EF FD                 1163 	.db #0xFD
   03F0 AE                 1164 	.db #0xAE
   03F1 FD                 1165 	.db #0xFD
   03F2 56                 1166 	.db #0x56
   03F3 FD                 1167 	.db #0xFD
   03F4 AE                 1168 	.db #0xAE
   03F5 FD                 1169 	.db #0xFD
   03F6 56                 1170 	.db #0x56
   03F7 FD                 1171 	.db #0xFD
   03F8 AE                 1172 	.db #0xAE
   03F9 FD                 1173 	.db #0xFD
   03FA 56                 1174 	.db #0x56
   03FB FD                 1175 	.db #0xFD
   03FC FE                 1176 	.db #0xFE
   03FD FD                 1177 	.db #0xFD
   03FE FE                 1178 	.db #0xFE
   03FF 01                 1179 	.db #0x01
   0400 FE                 1180 	.db #0xFE
   0401 01                 1181 	.db #0x01
   0402 00                 1182 	.db #0x00
   0403 FF                 1183 	.db #0xFF
   0404 00                 1184 	.db #0x00
   0405 00                 1185 	.db #0x00
   0406 7F                 1186 	.db #0x7F
   0407 00                 1187 	.db #0x00
   0408 7F                 1188 	.db #0x7F
   0409 00                 1189 	.db #0x00
   040A 7F                 1190 	.db #0x7F
   040B 03                 1191 	.db #0x03
   040C 7E                 1192 	.db #0x7E
   040D 0F                 1193 	.db #0x0F
   040E 75                 1194 	.db #0x75
   040F 1F                 1195 	.db #0x1F
   0410 6A                 1196 	.db #0x6A
   0411 3F                 1197 	.db #0x3F
   0412 75                 1198 	.db #0x75
   0413 3F                 1199 	.db #0x3F
   0414 6A                 1200 	.db #0x6A
   0415 3F                 1201 	.db #0x3F
   0416 75                 1202 	.db #0x75
   0417 3F                 1203 	.db #0x3F
   0418 7A                 1204 	.db #0x7A
   0419 1F                 1205 	.db #0x1F
   041A 7D                 1206 	.db #0x7D
   041B 0F                 1207 	.db #0x0F
   041C 7F                 1208 	.db #0x7F
   041D 03                 1209 	.db #0x03
   041E 7F                 1210 	.db #0x7F
   041F 00                 1211 	.db #0x00
   0420 7F                 1212 	.db #0x7F
   0421 00                 1213 	.db #0x00
   0422 00                 1214 	.db #0x00
   0423 7F                 1215 	.db #0x7F
   0424 00                 1216 	.db #0x00
   0425 00                 1217 	.db #0x00
   0426 FE                 1218 	.db #0xFE
   0427 01                 1219 	.db #0x01
   0428 FE                 1220 	.db #0xFE
   0429 01                 1221 	.db #0x01
   042A FE                 1222 	.db #0xFE
   042B C1                 1223 	.db #0xC1
   042C BE                 1224 	.db #0xBE
   042D F1                 1225 	.db #0xF1
   042E 5E                 1226 	.db #0x5E
   042F F9                 1227 	.db #0xF9
   0430 AE                 1228 	.db #0xAE
   0431 FD                 1229 	.db #0xFD
   0432 56                 1230 	.db #0x56
   0433 FD                 1231 	.db #0xFD
   0434 AE                 1232 	.db #0xAE
   0435 FD                 1233 	.db #0xFD
   0436 56                 1234 	.db #0x56
   0437 FD                 1235 	.db #0xFD
   0438 AE                 1236 	.db #0xAE
   0439 F9                 1237 	.db #0xF9
   043A 7E                 1238 	.db #0x7E
   043B F1                 1239 	.db #0xF1
   043C FE                 1240 	.db #0xFE
   043D C1                 1241 	.db #0xC1
   043E FE                 1242 	.db #0xFE
   043F 01                 1243 	.db #0x01
   0440 FE                 1244 	.db #0xFE
   0441 01                 1245 	.db #0x01
   0442 00                 1246 	.db #0x00
   0443 FF                 1247 	.db #0xFF
   0444 00                 1248 	.db #0x00
   0445 00                 1249 	.db #0x00
   0446 7F                 1250 	.db #0x7F
   0447 7F                 1251 	.db #0x7F
   0448 40                 1252 	.db #0x40
   0449 40                 1253 	.db #0x40
   044A 40                 1254 	.db #0x40
   044B 40                 1255 	.db #0x40
   044C 40                 1256 	.db #0x40
   044D 40                 1257 	.db #0x40
   044E 40                 1258 	.db #0x40
   044F 40                 1259 	.db #0x40
   0450 40                 1260 	.db #0x40
   0451 40                 1261 	.db #0x40
   0452 40                 1262 	.db #0x40
   0453 40                 1263 	.db #0x40
   0454 40                 1264 	.db #0x40
   0455 7F                 1265 	.db #0x7F
   0456 40                 1266 	.db #0x40
   0457 7F                 1267 	.db #0x7F
   0458 40                 1268 	.db #0x40
   0459 7F                 1269 	.db #0x7F
   045A 40                 1270 	.db #0x40
   045B 7F                 1271 	.db #0x7F
   045C 40                 1272 	.db #0x40
   045D 7F                 1273 	.db #0x7F
   045E 40                 1274 	.db #0x40
   045F 7F                 1275 	.db #0x7F
   0460 7F                 1276 	.db #0x7F
   0461 7F                 1277 	.db #0x7F
   0462 00                 1278 	.db #0x00
   0463 7F                 1279 	.db #0x7F
   0464 00                 1280 	.db #0x00
   0465 00                 1281 	.db #0x00
   0466 FE                 1282 	.db #0xFE
   0467 FF                 1283 	.db #0xFF
   0468 FE                 1284 	.db #0xFE
   0469 03                 1285 	.db #0x03
   046A FE                 1286 	.db #0xFE
   046B 03                 1287 	.db #0x03
   046C FE                 1288 	.db #0xFE
   046D 03                 1289 	.db #0x03
   046E FE                 1290 	.db #0xFE
   046F 03                 1291 	.db #0x03
   0470 FE                 1292 	.db #0xFE
   0471 03                 1293 	.db #0x03
   0472 FE                 1294 	.db #0xFE
   0473 03                 1295 	.db #0x03
   0474 FE                 1296 	.db #0xFE
   0475 FF                 1297 	.db #0xFF
   0476 FE                 1298 	.db #0xFE
   0477 FF                 1299 	.db #0xFF
   0478 FE                 1300 	.db #0xFE
   0479 FF                 1301 	.db #0xFF
   047A FE                 1302 	.db #0xFE
   047B FF                 1303 	.db #0xFF
   047C FE                 1304 	.db #0xFE
   047D FF                 1305 	.db #0xFF
   047E FE                 1306 	.db #0xFE
   047F FF                 1307 	.db #0xFF
   0480 FE                 1308 	.db #0xFE
   0481 FF                 1309 	.db #0xFF
   0482 00                 1310 	.db #0x00
   0483 FF                 1311 	.db #0xFF
   0484 00                 1312 	.db #0x00
   0485 00                 1313 	.db #0x00
   0486 7F                 1314 	.db #0x7F
   0487 00                 1315 	.db #0x00
   0488 7F                 1316 	.db #0x7F
   0489 0C                 1317 	.db #0x0C
   048A 7F                 1318 	.db #0x7F
   048B 10                 1319 	.db #0x10
   048C 7F                 1320 	.db #0x7F
   048D 08                 1321 	.db #0x08
   048E 7F                 1322 	.db #0x7F
   048F 04                 1323 	.db #0x04
   0490 7F                 1324 	.db #0x7F
   0491 18                 1325 	.db #0x18
   0492 7F                 1326 	.db #0x7F
   0493 00                 1327 	.db #0x00
   0494 7F                 1328 	.db #0x7F
   0495 00                 1329 	.db #0x00
   0496 7F                 1330 	.db #0x7F
   0497 08                 1331 	.db #0x08
   0498 7F                 1332 	.db #0x7F
   0499 14                 1333 	.db #0x14
   049A 7F                 1334 	.db #0x7F
   049B 14                 1335 	.db #0x14
   049C 7F                 1336 	.db #0x7F
   049D 14                 1337 	.db #0x14
   049E 7F                 1338 	.db #0x7F
   049F 08                 1339 	.db #0x08
   04A0 7F                 1340 	.db #0x7F
   04A1 00                 1341 	.db #0x00
   04A2 00                 1342 	.db #0x00
   04A3 7F                 1343 	.db #0x7F
   04A4 00                 1344 	.db #0x00
   04A5 01                 1345 	.db #0x01
   04A6 FE                 1346 	.db #0xFE
   04A7 01                 1347 	.db #0x01
   04A8 FE                 1348 	.db #0xFE
   04A9 29                 1349 	.db #0x29
   04AA FE                 1350 	.db #0xFE
   04AB 29                 1351 	.db #0x29
   04AC FE                 1352 	.db #0xFE
   04AD 11                 1353 	.db #0x11
   04AE FE                 1354 	.db #0xFE
   04AF 29                 1355 	.db #0x29
   04B0 FE                 1356 	.db #0xFE
   04B1 29                 1357 	.db #0x29
   04B2 FE                 1358 	.db #0xFE
   04B3 01                 1359 	.db #0x01
   04B4 FE                 1360 	.db #0xFE
   04B5 01                 1361 	.db #0x01
   04B6 FE                 1362 	.db #0xFE
   04B7 11                 1363 	.db #0x11
   04B8 FE                 1364 	.db #0xFE
   04B9 29                 1365 	.db #0x29
   04BA FE                 1366 	.db #0xFE
   04BB 39                 1367 	.db #0x39
   04BC FE                 1368 	.db #0xFE
   04BD 29                 1369 	.db #0x29
   04BE FE                 1370 	.db #0xFE
   04BF 29                 1371 	.db #0x29
   04C0 FE                 1372 	.db #0xFE
   04C1 01                 1373 	.db #0x01
   04C2 00                 1374 	.db #0x00
   04C3 FF                 1375 	.db #0xFF
   04C4                    1376 _selected_data:
   04C4 FF                 1377 	.db #0xFF
   04C5 FF                 1378 	.db #0xFF
   04C6 80                 1379 	.db #0x80
   04C7 FF                 1380 	.db #0xFF
   04C8 80                 1381 	.db #0x80
   04C9 FF                 1382 	.db #0xFF
   04CA 80                 1383 	.db #0x80
   04CB FF                 1384 	.db #0xFF
   04CC 80                 1385 	.db #0x80
   04CD FF                 1386 	.db #0xFF
   04CE 80                 1387 	.db #0x80
   04CF FF                 1388 	.db #0xFF
   04D0 80                 1389 	.db #0x80
   04D1 FF                 1390 	.db #0xFF
   04D2 80                 1391 	.db #0x80
   04D3 FE                 1392 	.db #0xFE
   04D4 81                 1393 	.db #0x81
   04D5 FD                 1394 	.db #0xFD
   04D6 82                 1395 	.db #0x82
   04D7 FA                 1396 	.db #0xFA
   04D8 84                 1397 	.db #0x84
   04D9 F5                 1398 	.db #0xF5
   04DA 88                 1399 	.db #0x88
   04DB EB                 1400 	.db #0xEB
   04DC 80                 1401 	.db #0x80
   04DD E7                 1402 	.db #0xE7
   04DE 80                 1403 	.db #0x80
   04DF D8                 1404 	.db #0xD8
   04E0 80                 1405 	.db #0x80
   04E1 FF                 1406 	.db #0xFF
   04E2 FF                 1407 	.db #0xFF
   04E3 80                 1408 	.db #0x80
   04E4 FF                 1409 	.db #0xFF
   04E5 FF                 1410 	.db #0xFF
   04E6 01                 1411 	.db #0x01
   04E7 FE                 1412 	.db #0xFE
   04E8 01                 1413 	.db #0x01
   04E9 F2                 1414 	.db #0xF2
   04EA 09                 1415 	.db #0x09
   04EB EA                 1416 	.db #0xEA
   04EC 11                 1417 	.db #0x11
   04ED D6                 1418 	.db #0xD6
   04EE 21                 1419 	.db #0x21
   04EF AE                 1420 	.db #0xAE
   04F0 41                 1421 	.db #0x41
   04F1 5E                 1422 	.db #0x5E
   04F2 81                 1423 	.db #0x81
   04F3 BE                 1424 	.db #0xBE
   04F4 01                 1425 	.db #0x01
   04F5 7E                 1426 	.db #0x7E
   04F6 01                 1427 	.db #0x01
   04F7 FE                 1428 	.db #0xFE
   04F8 01                 1429 	.db #0x01
   04F9 FE                 1430 	.db #0xFE
   04FA 01                 1431 	.db #0x01
   04FB FE                 1432 	.db #0xFE
   04FC 01                 1433 	.db #0x01
   04FD FE                 1434 	.db #0xFE
   04FE 01                 1435 	.db #0x01
   04FF 02                 1436 	.db #0x02
   0500 01                 1437 	.db #0x01
   0501 FE                 1438 	.db #0xFE
   0502 FF                 1439 	.db #0xFF
   0503 00                 1440 	.db #0x00
   0504 FF                 1441 	.db #0xFF
   0505 FF                 1442 	.db #0xFF
   0506 80                 1443 	.db #0x80
   0507 FF                 1444 	.db #0xFF
   0508 80                 1445 	.db #0x80
   0509 FF                 1446 	.db #0xFF
   050A 80                 1447 	.db #0x80
   050B FF                 1448 	.db #0xFF
   050C 80                 1449 	.db #0x80
   050D FF                 1450 	.db #0xFF
   050E 80                 1451 	.db #0x80
   050F FF                 1452 	.db #0xFF
   0510 80                 1453 	.db #0x80
   0511 FF                 1454 	.db #0xFF
   0512 80                 1455 	.db #0x80
   0513 FE                 1456 	.db #0xFE
   0514 81                 1457 	.db #0x81
   0515 FD                 1458 	.db #0xFD
   0516 82                 1459 	.db #0x82
   0517 F2                 1460 	.db #0xF2
   0518 80                 1461 	.db #0x80
   0519 E1                 1462 	.db #0xE1
   051A 80                 1463 	.db #0x80
   051B E1                 1464 	.db #0xE1
   051C 80                 1465 	.db #0x80
   051D E2                 1466 	.db #0xE2
   051E 80                 1467 	.db #0x80
   051F EE                 1468 	.db #0xEE
   0520 80                 1469 	.db #0x80
   0521 FF                 1470 	.db #0xFF
   0522 FF                 1471 	.db #0xFF
   0523 80                 1472 	.db #0x80
   0524 FF                 1473 	.db #0xFF
   0525 FF                 1474 	.db #0xFF
   0526 01                 1475 	.db #0x01
   0527 FE                 1476 	.db #0xFE
   0528 01                 1477 	.db #0x01
   0529 F2                 1478 	.db #0xF2
   052A 09                 1479 	.db #0x09
   052B EA                 1480 	.db #0xEA
   052C 11                 1481 	.db #0x11
   052D D6                 1482 	.db #0xD6
   052E 21                 1483 	.db #0x21
   052F AE                 1484 	.db #0xAE
   0530 41                 1485 	.db #0x41
   0531 5E                 1486 	.db #0x5E
   0532 81                 1487 	.db #0x81
   0533 BE                 1488 	.db #0xBE
   0534 01                 1489 	.db #0x01
   0535 7E                 1490 	.db #0x7E
   0536 01                 1491 	.db #0x01
   0537 FE                 1492 	.db #0xFE
   0538 01                 1493 	.db #0x01
   0539 FE                 1494 	.db #0xFE
   053A 01                 1495 	.db #0x01
   053B FE                 1496 	.db #0xFE
   053C 01                 1497 	.db #0x01
   053D 02                 1498 	.db #0x02
   053E 01                 1499 	.db #0x01
   053F 02                 1500 	.db #0x02
   0540 01                 1501 	.db #0x01
   0541 FE                 1502 	.db #0xFE
   0542 FF                 1503 	.db #0xFF
   0543 00                 1504 	.db #0x00
   0544 FF                 1505 	.db #0xFF
   0545 FF                 1506 	.db #0xFF
   0546 80                 1507 	.db #0x80
   0547 FF                 1508 	.db #0xFF
   0548 80                 1509 	.db #0x80
   0549 FF                 1510 	.db #0xFF
   054A 80                 1511 	.db #0x80
   054B FE                 1512 	.db #0xFE
   054C 80                 1513 	.db #0x80
   054D FD                 1514 	.db #0xFD
   054E 81                 1515 	.db #0x81
   054F F3                 1516 	.db #0xF3
   0550 82                 1517 	.db #0x82
   0551 E7                 1518 	.db #0xE7
   0552 81                 1519 	.db #0x81
   0553 E2                 1520 	.db #0xE2
   0554 80                 1521 	.db #0x80
   0555 E4                 1522 	.db #0xE4
   0556 80                 1523 	.db #0x80
   0557 E7                 1524 	.db #0xE7
   0558 80                 1525 	.db #0x80
   0559 E7                 1526 	.db #0xE7
   055A 80                 1527 	.db #0x80
   055B F7                 1528 	.db #0xF7
   055C 80                 1529 	.db #0x80
   055D F7                 1530 	.db #0xF7
   055E 80                 1531 	.db #0x80
   055F F7                 1532 	.db #0xF7
   0560 80                 1533 	.db #0x80
   0561 FF                 1534 	.db #0xFF
   0562 FF                 1535 	.db #0xFF
   0563 80                 1536 	.db #0x80
   0564 FF                 1537 	.db #0xFF
   0565 FF                 1538 	.db #0xFF
   0566 01                 1539 	.db #0x01
   0567 FE                 1540 	.db #0xFE
   0568 01                 1541 	.db #0x01
   0569 7E                 1542 	.db #0x7E
   056A 01                 1543 	.db #0x01
   056B BE                 1544 	.db #0xBE
   056C 81                 1545 	.db #0x81
   056D DE                 1546 	.db #0xDE
   056E 41                 1547 	.db #0x41
   056F 8E                 1548 	.db #0x8E
   0570 A1                 1549 	.db #0xA1
   0571 16                 1550 	.db #0x16
   0572 51                 1551 	.db #0x51
   0573 3A                 1552 	.db #0x3A
   0574 A1                 1553 	.db #0xA1
   0575 76                 1554 	.db #0x76
   0576 41                 1555 	.db #0x41
   0577 EE                 1556 	.db #0xEE
   0578 01                 1557 	.db #0x01
   0579 5E                 1558 	.db #0x5E
   057A 01                 1559 	.db #0x01
   057B BE                 1560 	.db #0xBE
   057C 01                 1561 	.db #0x01
   057D FE                 1562 	.db #0xFE
   057E 01                 1563 	.db #0x01
   057F FE                 1564 	.db #0xFE
   0580 01                 1565 	.db #0x01
   0581 FE                 1566 	.db #0xFE
   0582 FF                 1567 	.db #0xFF
   0583 00                 1568 	.db #0x00
   0584 FF                 1569 	.db #0xFF
   0585 FF                 1570 	.db #0xFF
   0586 80                 1571 	.db #0x80
   0587 FF                 1572 	.db #0xFF
   0588 80                 1573 	.db #0x80
   0589 FF                 1574 	.db #0xFF
   058A 80                 1575 	.db #0x80
   058B FF                 1576 	.db #0xFF
   058C 80                 1577 	.db #0x80
   058D FF                 1578 	.db #0xFF
   058E 80                 1579 	.db #0x80
   058F FE                 1580 	.db #0xFE
   0590 81                 1581 	.db #0x81
   0591 FD                 1582 	.db #0xFD
   0592 83                 1583 	.db #0x83
   0593 FB                 1584 	.db #0xFB
   0594 87                 1585 	.db #0x87
   0595 F7                 1586 	.db #0xF7
   0596 80                 1587 	.db #0x80
   0597 E0                 1588 	.db #0xE0
   0598 8E                 1589 	.db #0x8E
   0599 EE                 1590 	.db #0xEE
   059A 80                 1591 	.db #0x80
   059B E0                 1592 	.db #0xE0
   059C 80                 1593 	.db #0x80
   059D FF                 1594 	.db #0xFF
   059E 80                 1595 	.db #0x80
   059F FF                 1596 	.db #0xFF
   05A0 80                 1597 	.db #0x80
   05A1 FF                 1598 	.db #0xFF
   05A2 FF                 1599 	.db #0xFF
   05A3 80                 1600 	.db #0x80
   05A4 FF                 1601 	.db #0xFF
   05A5 FF                 1602 	.db #0xFF
   05A6 01                 1603 	.db #0x01
   05A7 FE                 1604 	.db #0xFE
   05A8 01                 1605 	.db #0x01
   05A9 FE                 1606 	.db #0xFE
   05AA 01                 1607 	.db #0x01
   05AB FE                 1608 	.db #0xFE
   05AC 01                 1609 	.db #0x01
   05AD 06                 1610 	.db #0x06
   05AE E1                 1611 	.db #0xE1
   05AF E6                 1612 	.db #0xE6
   05B0 D1                 1613 	.db #0xD1
   05B1 D6                 1614 	.db #0xD6
   05B2 A1                 1615 	.db #0xA1
   05B3 AE                 1616 	.db #0xAE
   05B4 41                 1617 	.db #0x41
   05B5 5E                 1618 	.db #0x5E
   05B6 81                 1619 	.db #0x81
   05B7 BE                 1620 	.db #0xBE
   05B8 01                 1621 	.db #0x01
   05B9 7E                 1622 	.db #0x7E
   05BA 01                 1623 	.db #0x01
   05BB FE                 1624 	.db #0xFE
   05BC 01                 1625 	.db #0x01
   05BD FE                 1626 	.db #0xFE
   05BE 01                 1627 	.db #0x01
   05BF FE                 1628 	.db #0xFE
   05C0 01                 1629 	.db #0x01
   05C1 FE                 1630 	.db #0xFE
   05C2 FF                 1631 	.db #0xFF
   05C3 00                 1632 	.db #0x00
   05C4 FF                 1633 	.db #0xFF
   05C5 FF                 1634 	.db #0xFF
   05C6 80                 1635 	.db #0x80
   05C7 FF                 1636 	.db #0xFF
   05C8 80                 1637 	.db #0x80
   05C9 DF                 1638 	.db #0xDF
   05CA 80                 1639 	.db #0x80
   05CB EF                 1640 	.db #0xEF
   05CC 80                 1641 	.db #0x80
   05CD F7                 1642 	.db #0xF7
   05CE 80                 1643 	.db #0x80
   05CF FB                 1644 	.db #0xFB
   05D0 80                 1645 	.db #0x80
   05D1 FD                 1646 	.db #0xFD
   05D2 80                 1647 	.db #0x80
   05D3 FE                 1648 	.db #0xFE
   05D4 80                 1649 	.db #0x80
   05D5 FF                 1650 	.db #0xFF
   05D6 80                 1651 	.db #0x80
   05D7 FF                 1652 	.db #0xFF
   05D8 80                 1653 	.db #0x80
   05D9 FF                 1654 	.db #0xFF
   05DA 80                 1655 	.db #0x80
   05DB FF                 1656 	.db #0xFF
   05DC 80                 1657 	.db #0x80
   05DD FF                 1658 	.db #0xFF
   05DE 80                 1659 	.db #0x80
   05DF FF                 1660 	.db #0xFF
   05E0 80                 1661 	.db #0x80
   05E1 FF                 1662 	.db #0xFF
   05E2 FF                 1663 	.db #0xFF
   05E3 80                 1664 	.db #0x80
   05E4 FF                 1665 	.db #0xFF
   05E5 FF                 1666 	.db #0xFF
   05E6 01                 1667 	.db #0x01
   05E7 FE                 1668 	.db #0xFE
   05E8 01                 1669 	.db #0x01
   05E9 FE                 1670 	.db #0xFE
   05EA 01                 1671 	.db #0x01
   05EB FE                 1672 	.db #0xFE
   05EC 01                 1673 	.db #0x01
   05ED FE                 1674 	.db #0xFE
   05EE 01                 1675 	.db #0x01
   05EF FE                 1676 	.db #0xFE
   05F0 01                 1677 	.db #0x01
   05F1 FE                 1678 	.db #0xFE
   05F2 01                 1679 	.db #0x01
   05F3 FE                 1680 	.db #0xFE
   05F4 01                 1681 	.db #0x01
   05F5 7E                 1682 	.db #0x7E
   05F6 01                 1683 	.db #0x01
   05F7 BE                 1684 	.db #0xBE
   05F8 01                 1685 	.db #0x01
   05F9 DE                 1686 	.db #0xDE
   05FA 01                 1687 	.db #0x01
   05FB EE                 1688 	.db #0xEE
   05FC 01                 1689 	.db #0x01
   05FD F6                 1690 	.db #0xF6
   05FE 01                 1691 	.db #0x01
   05FF FA                 1692 	.db #0xFA
   0600 01                 1693 	.db #0x01
   0601 FE                 1694 	.db #0xFE
   0602 FF                 1695 	.db #0xFF
   0603 00                 1696 	.db #0x00
   0604 FF                 1697 	.db #0xFF
   0605 FF                 1698 	.db #0xFF
   0606 80                 1699 	.db #0x80
   0607 FF                 1700 	.db #0xFF
   0608 80                 1701 	.db #0x80
   0609 FF                 1702 	.db #0xFF
   060A 80                 1703 	.db #0x80
   060B E1                 1704 	.db #0xE1
   060C 80                 1705 	.db #0x80
   060D FE                 1706 	.db #0xFE
   060E 80                 1707 	.db #0x80
   060F FF                 1708 	.db #0xFF
   0610 80                 1709 	.db #0x80
   0611 FF                 1710 	.db #0xFF
   0612 80                 1711 	.db #0x80
   0613 FF                 1712 	.db #0xFF
   0614 80                 1713 	.db #0x80
   0615 FF                 1714 	.db #0xFF
   0616 80                 1715 	.db #0x80
   0617 FF                 1716 	.db #0xFF
   0618 80                 1717 	.db #0x80
   0619 FF                 1718 	.db #0xFF
   061A 80                 1719 	.db #0x80
   061B FF                 1720 	.db #0xFF
   061C 80                 1721 	.db #0x80
   061D FF                 1722 	.db #0xFF
   061E 80                 1723 	.db #0x80
   061F FF                 1724 	.db #0xFF
   0620 80                 1725 	.db #0x80
   0621 FF                 1726 	.db #0xFF
   0622 FF                 1727 	.db #0xFF
   0623 80                 1728 	.db #0x80
   0624 FF                 1729 	.db #0xFF
   0625 FF                 1730 	.db #0xFF
   0626 01                 1731 	.db #0x01
   0627 FE                 1732 	.db #0xFE
   0628 01                 1733 	.db #0x01
   0629 FE                 1734 	.db #0xFE
   062A 01                 1735 	.db #0x01
   062B FE                 1736 	.db #0xFE
   062C 01                 1737 	.db #0x01
   062D 7E                 1738 	.db #0x7E
   062E 01                 1739 	.db #0x01
   062F BE                 1740 	.db #0xBE
   0630 01                 1741 	.db #0x01
   0631 DE                 1742 	.db #0xDE
   0632 01                 1743 	.db #0x01
   0633 EE                 1744 	.db #0xEE
   0634 01                 1745 	.db #0x01
   0635 EE                 1746 	.db #0xEE
   0636 01                 1747 	.db #0x01
   0637 F6                 1748 	.db #0xF6
   0638 01                 1749 	.db #0x01
   0639 F6                 1750 	.db #0xF6
   063A 01                 1751 	.db #0x01
   063B F6                 1752 	.db #0xF6
   063C 01                 1753 	.db #0x01
   063D F6                 1754 	.db #0xF6
   063E 01                 1755 	.db #0x01
   063F FE                 1756 	.db #0xFE
   0640 01                 1757 	.db #0x01
   0641 FE                 1758 	.db #0xFE
   0642 FF                 1759 	.db #0xFF
   0643 00                 1760 	.db #0x00
   0644 FF                 1761 	.db #0xFF
   0645 FF                 1762 	.db #0xFF
   0646 80                 1763 	.db #0x80
   0647 FF                 1764 	.db #0xFF
   0648 80                 1765 	.db #0x80
   0649 FF                 1766 	.db #0xFF
   064A 80                 1767 	.db #0x80
   064B C0                 1768 	.db #0xC0
   064C 80                 1769 	.db #0x80
   064D DF                 1770 	.db #0xDF
   064E 80                 1771 	.db #0x80
   064F DF                 1772 	.db #0xDF
   0650 80                 1773 	.db #0x80
   0651 DF                 1774 	.db #0xDF
   0652 80                 1775 	.db #0x80
   0653 DF                 1776 	.db #0xDF
   0654 80                 1777 	.db #0x80
   0655 DF                 1778 	.db #0xDF
   0656 80                 1779 	.db #0x80
   0657 DF                 1780 	.db #0xDF
   0658 80                 1781 	.db #0x80
   0659 DF                 1782 	.db #0xDF
   065A 80                 1783 	.db #0x80
   065B DF                 1784 	.db #0xDF
   065C 80                 1785 	.db #0x80
   065D C0                 1786 	.db #0xC0
   065E 80                 1787 	.db #0x80
   065F FF                 1788 	.db #0xFF
   0660 80                 1789 	.db #0x80
   0661 FF                 1790 	.db #0xFF
   0662 FF                 1791 	.db #0xFF
   0663 80                 1792 	.db #0x80
   0664 FF                 1793 	.db #0xFF
   0665 FF                 1794 	.db #0xFF
   0666 01                 1795 	.db #0x01
   0667 FE                 1796 	.db #0xFE
   0668 01                 1797 	.db #0x01
   0669 FE                 1798 	.db #0xFE
   066A 01                 1799 	.db #0x01
   066B 02                 1800 	.db #0x02
   066C 01                 1801 	.db #0x01
   066D FA                 1802 	.db #0xFA
   066E 01                 1803 	.db #0x01
   066F FA                 1804 	.db #0xFA
   0670 01                 1805 	.db #0x01
   0671 FA                 1806 	.db #0xFA
   0672 01                 1807 	.db #0x01
   0673 FA                 1808 	.db #0xFA
   0674 01                 1809 	.db #0x01
   0675 FA                 1810 	.db #0xFA
   0676 01                 1811 	.db #0x01
   0677 FA                 1812 	.db #0xFA
   0678 01                 1813 	.db #0x01
   0679 FA                 1814 	.db #0xFA
   067A 01                 1815 	.db #0x01
   067B FA                 1816 	.db #0xFA
   067C 01                 1817 	.db #0x01
   067D 02                 1818 	.db #0x02
   067E 01                 1819 	.db #0x01
   067F FE                 1820 	.db #0xFE
   0680 01                 1821 	.db #0x01
   0681 FE                 1822 	.db #0xFE
   0682 FF                 1823 	.db #0xFF
   0683 00                 1824 	.db #0x00
   0684 FF                 1825 	.db #0xFF
   0685 FF                 1826 	.db #0xFF
   0686 80                 1827 	.db #0x80
   0687 FF                 1828 	.db #0xFF
   0688 80                 1829 	.db #0x80
   0689 FF                 1830 	.db #0xFF
   068A 80                 1831 	.db #0x80
   068B FC                 1832 	.db #0xFC
   068C 80                 1833 	.db #0x80
   068D F3                 1834 	.db #0xF3
   068E 80                 1835 	.db #0x80
   068F EF                 1836 	.db #0xEF
   0690 80                 1837 	.db #0x80
   0691 DF                 1838 	.db #0xDF
   0692 80                 1839 	.db #0x80
   0693 DF                 1840 	.db #0xDF
   0694 80                 1841 	.db #0x80
   0695 DF                 1842 	.db #0xDF
   0696 80                 1843 	.db #0x80
   0697 DF                 1844 	.db #0xDF
   0698 80                 1845 	.db #0x80
   0699 EF                 1846 	.db #0xEF
   069A 80                 1847 	.db #0x80
   069B F3                 1848 	.db #0xF3
   069C 80                 1849 	.db #0x80
   069D FC                 1850 	.db #0xFC
   069E 80                 1851 	.db #0x80
   069F FF                 1852 	.db #0xFF
   06A0 80                 1853 	.db #0x80
   06A1 FF                 1854 	.db #0xFF
   06A2 FF                 1855 	.db #0xFF
   06A3 80                 1856 	.db #0x80
   06A4 FF                 1857 	.db #0xFF
   06A5 FF                 1858 	.db #0xFF
   06A6 01                 1859 	.db #0x01
   06A7 FE                 1860 	.db #0xFE
   06A8 01                 1861 	.db #0x01
   06A9 FE                 1862 	.db #0xFE
   06AA 01                 1863 	.db #0x01
   06AB 3E                 1864 	.db #0x3E
   06AC 01                 1865 	.db #0x01
   06AD CE                 1866 	.db #0xCE
   06AE 01                 1867 	.db #0x01
   06AF F6                 1868 	.db #0xF6
   06B0 01                 1869 	.db #0x01
   06B1 FA                 1870 	.db #0xFA
   06B2 01                 1871 	.db #0x01
   06B3 FA                 1872 	.db #0xFA
   06B4 01                 1873 	.db #0x01
   06B5 FA                 1874 	.db #0xFA
   06B6 01                 1875 	.db #0x01
   06B7 FA                 1876 	.db #0xFA
   06B8 01                 1877 	.db #0x01
   06B9 F6                 1878 	.db #0xF6
   06BA 01                 1879 	.db #0x01
   06BB CE                 1880 	.db #0xCE
   06BC 01                 1881 	.db #0x01
   06BD 3E                 1882 	.db #0x3E
   06BE 01                 1883 	.db #0x01
   06BF FE                 1884 	.db #0xFE
   06C0 01                 1885 	.db #0x01
   06C1 FE                 1886 	.db #0xFE
   06C2 FF                 1887 	.db #0xFF
   06C3 00                 1888 	.db #0x00
   06C4 FF                 1889 	.db #0xFF
   06C5 FF                 1890 	.db #0xFF
   06C6 80                 1891 	.db #0x80
   06C7 FF                 1892 	.db #0xFF
   06C8 80                 1893 	.db #0x80
   06C9 FF                 1894 	.db #0xFF
   06CA 80                 1895 	.db #0x80
   06CB C0                 1896 	.db #0xC0
   06CC 9F                 1897 	.db #0x9F
   06CD C0                 1898 	.db #0xC0
   06CE 9F                 1899 	.db #0x9F
   06CF C0                 1900 	.db #0xC0
   06D0 9F                 1901 	.db #0x9F
   06D1 C0                 1902 	.db #0xC0
   06D2 9F                 1903 	.db #0x9F
   06D3 C0                 1904 	.db #0xC0
   06D4 9F                 1905 	.db #0x9F
   06D5 C0                 1906 	.db #0xC0
   06D6 9F                 1907 	.db #0x9F
   06D7 C0                 1908 	.db #0xC0
   06D8 9F                 1909 	.db #0x9F
   06D9 C0                 1910 	.db #0xC0
   06DA 9F                 1911 	.db #0x9F
   06DB C0                 1912 	.db #0xC0
   06DC 80                 1913 	.db #0x80
   06DD C0                 1914 	.db #0xC0
   06DE 80                 1915 	.db #0x80
   06DF FF                 1916 	.db #0xFF
   06E0 80                 1917 	.db #0x80
   06E1 FF                 1918 	.db #0xFF
   06E2 FF                 1919 	.db #0xFF
   06E3 80                 1920 	.db #0x80
   06E4 FF                 1921 	.db #0xFF
   06E5 FF                 1922 	.db #0xFF
   06E6 01                 1923 	.db #0x01
   06E7 FE                 1924 	.db #0xFE
   06E8 01                 1925 	.db #0x01
   06E9 FE                 1926 	.db #0xFE
   06EA 01                 1927 	.db #0x01
   06EB 02                 1928 	.db #0x02
   06EC F9                 1929 	.db #0xF9
   06ED 02                 1930 	.db #0x02
   06EE F9                 1931 	.db #0xF9
   06EF 02                 1932 	.db #0x02
   06F0 F9                 1933 	.db #0xF9
   06F1 02                 1934 	.db #0x02
   06F2 F9                 1935 	.db #0xF9
   06F3 02                 1936 	.db #0x02
   06F4 F9                 1937 	.db #0xF9
   06F5 02                 1938 	.db #0x02
   06F6 F9                 1939 	.db #0xF9
   06F7 02                 1940 	.db #0x02
   06F8 F9                 1941 	.db #0xF9
   06F9 02                 1942 	.db #0x02
   06FA F9                 1943 	.db #0xF9
   06FB 02                 1944 	.db #0x02
   06FC 01                 1945 	.db #0x01
   06FD 02                 1946 	.db #0x02
   06FE 01                 1947 	.db #0x01
   06FF FE                 1948 	.db #0xFE
   0700 01                 1949 	.db #0x01
   0701 FE                 1950 	.db #0xFE
   0702 FF                 1951 	.db #0xFF
   0703 00                 1952 	.db #0x00
   0704 FF                 1953 	.db #0xFF
   0705 FF                 1954 	.db #0xFF
   0706 80                 1955 	.db #0x80
   0707 FF                 1956 	.db #0xFF
   0708 80                 1957 	.db #0x80
   0709 FF                 1958 	.db #0xFF
   070A 80                 1959 	.db #0x80
   070B FC                 1960 	.db #0xFC
   070C 83                 1961 	.db #0x83
   070D F0                 1962 	.db #0xF0
   070E 8F                 1963 	.db #0x8F
   070F E0                 1964 	.db #0xE0
   0710 9F                 1965 	.db #0x9F
   0711 C0                 1966 	.db #0xC0
   0712 9F                 1967 	.db #0x9F
   0713 C0                 1968 	.db #0xC0
   0714 9F                 1969 	.db #0x9F
   0715 C0                 1970 	.db #0xC0
   0716 9F                 1971 	.db #0x9F
   0717 C0                 1972 	.db #0xC0
   0718 8F                 1973 	.db #0x8F
   0719 E0                 1974 	.db #0xE0
   071A 83                 1975 	.db #0x83
   071B F0                 1976 	.db #0xF0
   071C 80                 1977 	.db #0x80
   071D FC                 1978 	.db #0xFC
   071E 80                 1979 	.db #0x80
   071F FF                 1980 	.db #0xFF
   0720 80                 1981 	.db #0x80
   0721 FF                 1982 	.db #0xFF
   0722 FF                 1983 	.db #0xFF
   0723 80                 1984 	.db #0x80
   0724 FF                 1985 	.db #0xFF
   0725 FF                 1986 	.db #0xFF
   0726 01                 1987 	.db #0x01
   0727 FE                 1988 	.db #0xFE
   0728 01                 1989 	.db #0x01
   0729 FE                 1990 	.db #0xFE
   072A 01                 1991 	.db #0x01
   072B 3E                 1992 	.db #0x3E
   072C C1                 1993 	.db #0xC1
   072D 0E                 1994 	.db #0x0E
   072E F1                 1995 	.db #0xF1
   072F 06                 1996 	.db #0x06
   0730 F9                 1997 	.db #0xF9
   0731 02                 1998 	.db #0x02
   0732 F9                 1999 	.db #0xF9
   0733 02                 2000 	.db #0x02
   0734 F9                 2001 	.db #0xF9
   0735 02                 2002 	.db #0x02
   0736 F9                 2003 	.db #0xF9
   0737 02                 2004 	.db #0x02
   0738 F1                 2005 	.db #0xF1
   0739 06                 2006 	.db #0x06
   073A C1                 2007 	.db #0xC1
   073B 0E                 2008 	.db #0x0E
   073C 01                 2009 	.db #0x01
   073D 3E                 2010 	.db #0x3E
   073E 01                 2011 	.db #0x01
   073F FE                 2012 	.db #0xFE
   0740 01                 2013 	.db #0x01
   0741 FE                 2014 	.db #0xFE
   0742 FF                 2015 	.db #0xFF
   0743 00                 2016 	.db #0x00
   0744 00                 2017 	.db #0x00
   0745 00                 2018 	.db #0x00
   0746 7F                 2019 	.db #0x7F
   0747 7F                 2020 	.db #0x7F
   0748 61                 2021 	.db #0x61
   0749 61                 2022 	.db #0x61
   074A 52                 2023 	.db #0x52
   074B 52                 2024 	.db #0x52
   074C 4C                 2025 	.db #0x4C
   074D 4C                 2026 	.db #0x4C
   074E 4C                 2027 	.db #0x4C
   074F 4C                 2028 	.db #0x4C
   0750 52                 2029 	.db #0x52
   0751 52                 2030 	.db #0x52
   0752 61                 2031 	.db #0x61
   0753 61                 2032 	.db #0x61
   0754 40                 2033 	.db #0x40
   0755 5E                 2034 	.db #0x5E
   0756 40                 2035 	.db #0x40
   0757 6D                 2036 	.db #0x6D
   0758 40                 2037 	.db #0x40
   0759 73                 2038 	.db #0x73
   075A 40                 2039 	.db #0x40
   075B 73                 2040 	.db #0x73
   075C 40                 2041 	.db #0x40
   075D 6D                 2042 	.db #0x6D
   075E 40                 2043 	.db #0x40
   075F 5E                 2044 	.db #0x5E
   0760 7F                 2045 	.db #0x7F
   0761 7F                 2046 	.db #0x7F
   0762 00                 2047 	.db #0x00
   0763 7F                 2048 	.db #0x7F
   0764 00                 2049 	.db #0x00
   0765 00                 2050 	.db #0x00
   0766 FE                 2051 	.db #0xFE
   0767 FF                 2052 	.db #0xFF
   0768 FE                 2053 	.db #0xFE
   0769 87                 2054 	.db #0x87
   076A FE                 2055 	.db #0xFE
   076B 4B                 2056 	.db #0x4B
   076C FE                 2057 	.db #0xFE
   076D 33                 2058 	.db #0x33
   076E FE                 2059 	.db #0xFE
   076F 33                 2060 	.db #0x33
   0770 FE                 2061 	.db #0xFE
   0771 4B                 2062 	.db #0x4B
   0772 FE                 2063 	.db #0xFE
   0773 87                 2064 	.db #0x87
   0774 7A                 2065 	.db #0x7A
   0775 7B                 2066 	.db #0x7B
   0776 B6                 2067 	.db #0xB6
   0777 B7                 2068 	.db #0xB7
   0778 CE                 2069 	.db #0xCE
   0779 CF                 2070 	.db #0xCF
   077A CE                 2071 	.db #0xCE
   077B CF                 2072 	.db #0xCF
   077C B6                 2073 	.db #0xB6
   077D B7                 2074 	.db #0xB7
   077E 7A                 2075 	.db #0x7A
   077F 7B                 2076 	.db #0x7B
   0780 FE                 2077 	.db #0xFE
   0781 FF                 2078 	.db #0xFF
   0782 00                 2079 	.db #0x00
   0783 FF                 2080 	.db #0xFF
   0784 00                 2081 	.db #0x00
   0785 00                 2082 	.db #0x00
   0786 7F                 2083 	.db #0x7F
   0787 7F                 2084 	.db #0x7F
   0788 73                 2085 	.db #0x73
   0789 73                 2086 	.db #0x73
   078A 6F                 2087 	.db #0x6F
   078B 6F                 2088 	.db #0x6F
   078C 77                 2089 	.db #0x77
   078D 77                 2090 	.db #0x77
   078E 7B                 2091 	.db #0x7B
   078F 7B                 2092 	.db #0x7B
   0790 67                 2093 	.db #0x67
   0791 67                 2094 	.db #0x67
   0792 7F                 2095 	.db #0x7F
   0793 7F                 2096 	.db #0x7F
   0794 7F                 2097 	.db #0x7F
   0795 7F                 2098 	.db #0x7F
   0796 77                 2099 	.db #0x77
   0797 77                 2100 	.db #0x77
   0798 6B                 2101 	.db #0x6B
   0799 6B                 2102 	.db #0x6B
   079A 6B                 2103 	.db #0x6B
   079B 6B                 2104 	.db #0x6B
   079C 6B                 2105 	.db #0x6B
   079D 6B                 2106 	.db #0x6B
   079E 77                 2107 	.db #0x77
   079F 77                 2108 	.db #0x77
   07A0 7F                 2109 	.db #0x7F
   07A1 7F                 2110 	.db #0x7F
   07A2 00                 2111 	.db #0x00
   07A3 7F                 2112 	.db #0x7F
   07A4 00                 2113 	.db #0x00
   07A5 01                 2114 	.db #0x01
   07A6 FE                 2115 	.db #0xFE
   07A7 FF                 2116 	.db #0xFF
   07A8 D6                 2117 	.db #0xD6
   07A9 D7                 2118 	.db #0xD7
   07AA D6                 2119 	.db #0xD6
   07AB D7                 2120 	.db #0xD7
   07AC EE                 2121 	.db #0xEE
   07AD EF                 2122 	.db #0xEF
   07AE D6                 2123 	.db #0xD6
   07AF D7                 2124 	.db #0xD7
   07B0 D6                 2125 	.db #0xD6
   07B1 D7                 2126 	.db #0xD7
   07B2 FE                 2127 	.db #0xFE
   07B3 FF                 2128 	.db #0xFF
   07B4 FE                 2129 	.db #0xFE
   07B5 FF                 2130 	.db #0xFF
   07B6 EE                 2131 	.db #0xEE
   07B7 EF                 2132 	.db #0xEF
   07B8 D6                 2133 	.db #0xD6
   07B9 D7                 2134 	.db #0xD7
   07BA C6                 2135 	.db #0xC6
   07BB C7                 2136 	.db #0xC7
   07BC D6                 2137 	.db #0xD6
   07BD D7                 2138 	.db #0xD7
   07BE D6                 2139 	.db #0xD6
   07BF D7                 2140 	.db #0xD7
   07C0 FE                 2141 	.db #0xFE
   07C1 FF                 2142 	.db #0xFF
   07C2 00                 2143 	.db #0x00
   07C3 FF                 2144 	.db #0xFF
   07C4                    2145 _cursors:
   07C4 00                 2146 	.db #0x00
   07C5 01                 2147 	.db #0x01
   07C6 01                 2148 	.db #0x01
   07C7 00                 2149 	.db #0x00
   07C8 00                 2150 	.db #0x00
   07C9 01                 2151 	.db #0x01
   07CA 02                 2152 	.db #0x02
   07CB 02                 2153 	.db #0x02
   07CC 00                 2154 	.db #0x00
   07CD 0F                 2155 	.db #0x0F
   07CE 05                 2156 	.db #0x05
   07CF 02                 2157 	.db #0x02
   07D0 02                 2158 	.db #0x02
   07D1 00                 2159 	.db #0x00
   07D2 0F                 2160 	.db #0x0F
   07D3 09                 2161 	.db #0x09
   07D4 02                 2162 	.db #0x02
   07D5 02                 2163 	.db #0x02
   07D6 02                 2164 	.db #0x02
   07D7 0F                 2165 	.db #0x0F
   07D8 0D                 2166 	.db #0x0D
   07D9 02                 2167 	.db #0x02
   07DA 02                 2168 	.db #0x02
   07DB 00                 2169 	.db #0x00
   07DC 0F                 2170 	.db #0x0F
   07DD 11                 2171 	.db #0x11
   07DE 02                 2172 	.db #0x02
   07DF 02                 2173 	.db #0x02
   07E0 05                 2174 	.db #0x05
   07E1 0A                 2175 	.db #0x0A
   07E2                    2176 _cursors_data:
   07E2 FF                 2177 	.db #0xFF
   07E3 00                 2178 	.db #0x00
   07E4 FF                 2179 	.db #0xFF
   07E5 7E                 2180 	.db #0x7E
   07E6 FF                 2181 	.db #0xFF
   07E7 7C                 2182 	.db #0x7C
   07E8 FE                 2183 	.db #0xFE
   07E9 78                 2184 	.db #0x78
   07EA FF                 2185 	.db #0xFF
   07EB 7C                 2186 	.db #0x7C
   07EC FF                 2187 	.db #0xFF
   07ED 6E                 2188 	.db #0x6E
   07EE FF                 2189 	.db #0xFF
   07EF 46                 2190 	.db #0x46
   07F0 EF                 2191 	.db #0xEF
   07F1 00                 2192 	.db #0x00
   07F2 00                 2193 	.db #0x00
   07F3 00                 2194 	.db #0x00
   07F4 00                 2195 	.db #0x00
   07F5 00                 2196 	.db #0x00
   07F6 00                 2197 	.db #0x00
   07F7 00                 2198 	.db #0x00
   07F8 00                 2199 	.db #0x00
   07F9 00                 2200 	.db #0x00
   07FA 00                 2201 	.db #0x00
   07FB 00                 2202 	.db #0x00
   07FC 01                 2203 	.db #0x01
   07FD 00                 2204 	.db #0x00
   07FE 03                 2205 	.db #0x03
   07FF 00                 2206 	.db #0x00
   0800 07                 2207 	.db #0x07
   0801 01                 2208 	.db #0x01
   0802 0F                 2209 	.db #0x0F
   0803 02                 2210 	.db #0x02
   0804 1F                 2211 	.db #0x1F
   0805 05                 2212 	.db #0x05
   0806 3F                 2213 	.db #0x3F
   0807 0A                 2214 	.db #0x0A
   0808 7F                 2215 	.db #0x7F
   0809 14                 2216 	.db #0x14
   080A 7E                 2217 	.db #0x7E
   080B 28                 2218 	.db #0x28
   080C FC                 2219 	.db #0xFC
   080D 30                 2220 	.db #0x30
   080E F8                 2221 	.db #0xF8
   080F 40                 2222 	.db #0x40
   0810 60                 2223 	.db #0x60
   0811 00                 2224 	.db #0x00
   0812 00                 2225 	.db #0x00
   0813 00                 2226 	.db #0x00
   0814 00                 2227 	.db #0x00
   0815 00                 2228 	.db #0x00
   0816 3C                 2229 	.db #0x3C
   0817 00                 2230 	.db #0x00
   0818 7C                 2231 	.db #0x7C
   0819 18                 2232 	.db #0x18
   081A FC                 2233 	.db #0xFC
   081B 28                 2234 	.db #0x28
   081C FC                 2235 	.db #0xFC
   081D 50                 2236 	.db #0x50
   081E F8                 2237 	.db #0xF8
   081F A0                 2238 	.db #0xA0
   0820 F0                 2239 	.db #0xF0
   0821 40                 2240 	.db #0x40
   0822 E0                 2241 	.db #0xE0
   0823 80                 2242 	.db #0x80
   0824 C0                 2243 	.db #0xC0
   0825 00                 2244 	.db #0x00
   0826 80                 2245 	.db #0x80
   0827 00                 2246 	.db #0x00
   0828 00                 2247 	.db #0x00
   0829 00                 2248 	.db #0x00
   082A 00                 2249 	.db #0x00
   082B 00                 2250 	.db #0x00
   082C 00                 2251 	.db #0x00
   082D 00                 2252 	.db #0x00
   082E 00                 2253 	.db #0x00
   082F 00                 2254 	.db #0x00
   0830 00                 2255 	.db #0x00
   0831 00                 2256 	.db #0x00
   0832 00                 2257 	.db #0x00
   0833 00                 2258 	.db #0x00
   0834 00                 2259 	.db #0x00
   0835 00                 2260 	.db #0x00
   0836 00                 2261 	.db #0x00
   0837 00                 2262 	.db #0x00
   0838 00                 2263 	.db #0x00
   0839 00                 2264 	.db #0x00
   083A 01                 2265 	.db #0x01
   083B 00                 2266 	.db #0x00
   083C 03                 2267 	.db #0x03
   083D 00                 2268 	.db #0x00
   083E 07                 2269 	.db #0x07
   083F 01                 2270 	.db #0x01
   0840 0F                 2271 	.db #0x0F
   0841 02                 2272 	.db #0x02
   0842 1F                 2273 	.db #0x1F
   0843 05                 2274 	.db #0x05
   0844 7F                 2275 	.db #0x7F
   0845 0A                 2276 	.db #0x0A
   0846 FF                 2277 	.db #0xFF
   0847 34                 2278 	.db #0x34
   0848 FE                 2279 	.db #0xFE
   0849 78                 2280 	.db #0x78
   084A FC                 2281 	.db #0xFC
   084B 78                 2282 	.db #0x78
   084C FC                 2283 	.db #0xFC
   084D 70                 2284 	.db #0x70
   084E F8                 2285 	.db #0xF8
   084F 40                 2286 	.db #0x40
   0850 60                 2287 	.db #0x60
   0851 00                 2288 	.db #0x00
   0852 00                 2289 	.db #0x00
   0853 00                 2290 	.db #0x00
   0854 00                 2291 	.db #0x00
   0855 00                 2292 	.db #0x00
   0856 78                 2293 	.db #0x78
   0857 00                 2294 	.db #0x00
   0858 F8                 2295 	.db #0xF8
   0859 30                 2296 	.db #0x30
   085A F8                 2297 	.db #0xF8
   085B 50                 2298 	.db #0x50
   085C F8                 2299 	.db #0xF8
   085D A0                 2300 	.db #0xA0
   085E F0                 2301 	.db #0xF0
   085F 40                 2302 	.db #0x40
   0860 E0                 2303 	.db #0xE0
   0861 80                 2304 	.db #0x80
   0862 C0                 2305 	.db #0xC0
   0863 00                 2306 	.db #0x00
   0864 80                 2307 	.db #0x80
   0865 00                 2308 	.db #0x00
   0866 00                 2309 	.db #0x00
   0867 00                 2310 	.db #0x00
   0868 00                 2311 	.db #0x00
   0869 00                 2312 	.db #0x00
   086A 00                 2313 	.db #0x00
   086B 00                 2314 	.db #0x00
   086C 00                 2315 	.db #0x00
   086D 00                 2316 	.db #0x00
   086E 00                 2317 	.db #0x00
   086F 00                 2318 	.db #0x00
   0870 00                 2319 	.db #0x00
   0871 00                 2320 	.db #0x00
   0872 00                 2321 	.db #0x00
   0873 00                 2322 	.db #0x00
   0874 00                 2323 	.db #0x00
   0875 00                 2324 	.db #0x00
   0876 07                 2325 	.db #0x07
   0877 00                 2326 	.db #0x00
   0878 0F                 2327 	.db #0x0F
   0879 02                 2328 	.db #0x02
   087A 1F                 2329 	.db #0x1F
   087B 05                 2330 	.db #0x05
   087C 7F                 2331 	.db #0x7F
   087D 08                 2332 	.db #0x08
   087E FE                 2333 	.db #0xFE
   087F 31                 2334 	.db #0x31
   0880 FD                 2335 	.db #0xFD
   0881 63                 2336 	.db #0x63
   0882 FA                 2337 	.db #0xFA
   0883 77                 2338 	.db #0x77
   0884 FD                 2339 	.db #0xFD
   0885 6E                 2340 	.db #0x6E
   0886 FF                 2341 	.db #0xFF
   0887 64                 2342 	.db #0x64
   0888 FF                 2343 	.db #0xFF
   0889 62                 2344 	.db #0x62
   088A F7                 2345 	.db #0xF7
   088B 21                 2346 	.db #0x21
   088C 73                 2347 	.db #0x73
   088D 20                 2348 	.db #0x20
   088E 70                 2349 	.db #0x70
   088F 20                 2350 	.db #0x20
   0890 50                 2351 	.db #0x50
   0891 00                 2352 	.db #0x00
   0892 00                 2353 	.db #0x00
   0893 00                 2354 	.db #0x00
   0894 00                 2355 	.db #0x00
   0895 00                 2356 	.db #0x00
   0896 00                 2357 	.db #0x00
   0897 00                 2358 	.db #0x00
   0898 80                 2359 	.db #0x80
   0899 00                 2360 	.db #0x00
   089A C0                 2361 	.db #0xC0
   089B 00                 2362 	.db #0x00
   089C E0                 2363 	.db #0xE0
   089D 80                 2364 	.db #0x80
   089E F0                 2365 	.db #0xF0
   089F C0                 2366 	.db #0xC0
   08A0 78                 2367 	.db #0x78
   08A1 A0                 2368 	.db #0xA0
   08A2 F8                 2369 	.db #0xF8
   08A3 10                 2370 	.db #0x10
   08A4 F8                 2371 	.db #0xF8
   08A5 20                 2372 	.db #0x20
   08A6 F0                 2373 	.db #0xF0
   08A7 40                 2374 	.db #0x40
   08A8 E0                 2375 	.db #0xE0
   08A9 80                 2376 	.db #0x80
   08AA C0                 2377 	.db #0xC0
   08AB 00                 2378 	.db #0x00
   08AC 80                 2379 	.db #0x80
   08AD 00                 2380 	.db #0x00
   08AE 00                 2381 	.db #0x00
   08AF 00                 2382 	.db #0x00
   08B0 00                 2383 	.db #0x00
   08B1 00                 2384 	.db #0x00
   08B2 00                 2385 	.db #0x00
   08B3 00                 2386 	.db #0x00
   08B4 00                 2387 	.db #0x00
   08B5 00                 2388 	.db #0x00
   08B6 00                 2389 	.db #0x00
   08B7 00                 2390 	.db #0x00
   08B8 00                 2391 	.db #0x00
   08B9 00                 2392 	.db #0x00
   08BA 00                 2393 	.db #0x00
   08BB 00                 2394 	.db #0x00
   08BC 00                 2395 	.db #0x00
   08BD 00                 2396 	.db #0x00
   08BE 07                 2397 	.db #0x07
   08BF 00                 2398 	.db #0x00
   08C0 0F                 2399 	.db #0x0F
   08C1 03                 2400 	.db #0x03
   08C2 1F                 2401 	.db #0x1F
   08C3 04                 2402 	.db #0x04
   08C4 3F                 2403 	.db #0x3F
   08C5 08                 2404 	.db #0x08
   08C6 7F                 2405 	.db #0x7F
   08C7 11                 2406 	.db #0x11
   08C8 FF                 2407 	.db #0xFF
   08C9 22                 2408 	.db #0x22
   08CA FF                 2409 	.db #0xFF
   08CB 7D                 2410 	.db #0x7D
   08CC FF                 2411 	.db #0xFF
   08CD 46                 2412 	.db #0x46
   08CE FF                 2413 	.db #0xFF
   08CF 7C                 2414 	.db #0x7C
   08D0 7E                 2415 	.db #0x7E
   08D1 00                 2416 	.db #0x00
   08D2 00                 2417 	.db #0x00
   08D3 00                 2418 	.db #0x00
   08D4 00                 2419 	.db #0x00
   08D5 00                 2420 	.db #0x00
   08D6 00                 2421 	.db #0x00
   08D7 00                 2422 	.db #0x00
   08D8 00                 2423 	.db #0x00
   08D9 00                 2424 	.db #0x00
   08DA 00                 2425 	.db #0x00
   08DB 00                 2426 	.db #0x00
   08DC 00                 2427 	.db #0x00
   08DD 00                 2428 	.db #0x00
   08DE F0                 2429 	.db #0xF0
   08DF 00                 2430 	.db #0x00
   08E0 F0                 2431 	.db #0xF0
   08E1 E0                 2432 	.db #0xE0
   08E2 F0                 2433 	.db #0xF0
   08E3 60                 2434 	.db #0x60
   08E4 F0                 2435 	.db #0xF0
   08E5 A0                 2436 	.db #0xA0
   08E6 F0                 2437 	.db #0xF0
   08E7 40                 2438 	.db #0x40
   08E8 E0                 2439 	.db #0xE0
   08E9 80                 2440 	.db #0x80
   08EA C0                 2441 	.db #0xC0
   08EB 00                 2442 	.db #0x00
   08EC 80                 2443 	.db #0x80
   08ED 00                 2444 	.db #0x00
   08EE 00                 2445 	.db #0x00
   08EF 00                 2446 	.db #0x00
   08F0 00                 2447 	.db #0x00
   08F1 00                 2448 	.db #0x00
   08F2 00                 2449 	.db #0x00
   08F3 00                 2450 	.db #0x00
   08F4 00                 2451 	.db #0x00
   08F5 00                 2452 	.db #0x00
   08F6 00                 2453 	.db #0x00
   08F7 00                 2454 	.db #0x00
   08F8 00                 2455 	.db #0x00
   08F9 00                 2456 	.db #0x00
   08FA 00                 2457 	.db #0x00
   08FB 00                 2458 	.db #0x00
   08FC 0E                 2459 	.db #0x0E
   08FD 00                 2460 	.db #0x00
   08FE 0E                 2461 	.db #0x0E
   08FF 04                 2462 	.db #0x04
   0900 0E                 2463 	.db #0x0E
   0901 04                 2464 	.db #0x04
   0902 0E                 2465 	.db #0x0E
   0903 04                 2466 	.db #0x04
   0904 FF                 2467 	.db #0xFF
   0905 04                 2468 	.db #0x04
   0906 FB                 2469 	.db #0xFB
   0907 7B                 2470 	.db #0x7B
   0908 FF                 2471 	.db #0xFF
   0909 04                 2472 	.db #0x04
   090A 0E                 2473 	.db #0x0E
   090B 04                 2474 	.db #0x04
   090C 0E                 2475 	.db #0x0E
   090D 04                 2476 	.db #0x04
   090E 0E                 2477 	.db #0x0E
   090F 04                 2478 	.db #0x04
   0910 0E                 2479 	.db #0x0E
   0911 00                 2480 	.db #0x00
   0912 00                 2481 	.db #0x00
   0913 00                 2482 	.db #0x00
   0914 00                 2483 	.db #0x00
   0915 00                 2484 	.db #0x00
   0916 00                 2485 	.db #0x00
   0917 00                 2486 	.db #0x00
   0918 00                 2487 	.db #0x00
   0919 00                 2488 	.db #0x00
   091A 00                 2489 	.db #0x00
   091B 00                 2490 	.db #0x00
   091C 00                 2491 	.db #0x00
   091D 00                 2492 	.db #0x00
   091E 00                 2493 	.db #0x00
   091F 00                 2494 	.db #0x00
   0920 00                 2495 	.db #0x00
   0921 00                 2496 	.db #0x00
   0922 00                 2497 	.db #0x00
   0923 00                 2498 	.db #0x00
   0924 E0                 2499 	.db #0xE0
   0925 00                 2500 	.db #0x00
   0926 E0                 2501 	.db #0xE0
   0927 C0                 2502 	.db #0xC0
   0928 E0                 2503 	.db #0xE0
   0929 00                 2504 	.db #0x00
   092A 00                 2505 	.db #0x00
   092B 00                 2506 	.db #0x00
   092C 00                 2507 	.db #0x00
   092D 00                 2508 	.db #0x00
   092E 00                 2509 	.db #0x00
   092F 00                 2510 	.db #0x00
   0930 00                 2511 	.db #0x00
   0931 00                 2512 	.db #0x00
   0932                    2513 _colors:
   0932 00                 2514 	.db #0x00
   0933 02                 2515 	.db #0x02
   0934 01                 2516 	.db #0x01
   0935 03                 2517 	.db #0x03
   0936                    2518 _modes:
   0936 00                 2519 	.db #0x00
   0937 01                 2520 	.db #0x01
   0938 02                 2521 	.db #0x02
   0939 03                 2522 	.db #0x03
                           2523 ;	paint.c 281
                           2524 ;	genLabel
                           2525 ;	genFunction
                           2526 ;	---------------------------------
                           2527 ; Function move_cursor
                           2528 ; ---------------------------------
   093A                    2529 ___move_cursor_start:
   093A                    2530 _move_cursor:
   093A E8 E8              2531 	lda	sp,-24(sp)
                           2532 ;	paint.c 285
                           2533 ;	genAssign
                           2534 ;	AOP_STK for _move_cursor_x_1_1
   093C F8 17              2535 	lda	hl,23(sp)
   093E 36 00              2536 	ld	(hl),#0x00
                           2537 ;	genLabel
   0940                    2538 00105$:
                           2539 ;	genMult
                           2540 ;	AOP_HL for _current_cursor
   0940 21 03 03           2541 	ld	hl,#_current_cursor
   0943 5E                 2542 	ld	e,(hl)
   0944 16 00              2543 	ld	d,#0x00
   0946 6B                 2544 	ld	l,e
   0947 62                 2545 	ld	h,d
   0948 29                 2546 	add	hl,hl
   0949 29                 2547 	add	hl,hl
   094A 19                 2548 	add	hl,de
   094B 45                 2549 	ld	b,l
   094C 4C                 2550 	ld	c,h
                           2551 ;	genPlus
                           2552 ;	AOP_STK for _move_cursor_sloc2_1_0
                           2553 ;	Can't optimise plus by inc, falling back to the normal way
   094D 11 C4 07           2554 	ld	de,#_cursors
   0950 68                 2555 	ld	l,b
   0951 61                 2556 	ld	h,c
   0952 19                 2557 	add	hl,de
   0953 7D                 2558 	ld	a,l
   0954 54                 2559 	ld	d,h
   0955 F8 11              2560 	lda	hl,17(sp)
   0957 22                 2561 	ld	(hl+),a
   0958 72                 2562 	ld	(hl),d
                           2563 ;	genPlus
                           2564 ;	AOP_STK for _move_cursor_sloc2_1_0
                           2565 ;	AOP_STK for _move_cursor_sloc0_1_0
                           2566 ;	genPlusIncr
                           2567 ;	Can't optimise plus by inc, falling back to the normal way
   0959 2B                 2568 	dec	hl
   095A 5E                 2569 	ld	e,(hl)
   095B 23                 2570 	inc	hl
   095C 56                 2571 	ld	d,(hl)
   095D 21 01 00           2572 	ld	hl,#0x0001
   0960 19                 2573 	add	hl,de
   0961 7D                 2574 	ld	a,l
   0962 54                 2575 	ld	d,h
   0963 F8 14              2576 	lda	hl,20(sp)
                           2577 ;	genPointerGet
                           2578 ;	AOP_STK for _move_cursor_sloc0_1_0
                           2579 ;	AOP_STK for _move_cursor_sloc1_1_0
   0965 22                 2580 	ld	(hl+),a
   0966 72                 2581 	ld	(hl),d
   0967 5F                 2582 	ld	e,a
   0968 1A                 2583 	ld	a,(de)
   0969 2B                 2584 	dec	hl
   096A 2B                 2585 	dec	hl
   096B 77                 2586 	ld	(hl),a
                           2587 ;	genCmpLt
                           2588 ;	AOP_STK for _move_cursor_x_1_1
                           2589 ;	AOP_STK for _move_cursor_sloc1_1_0
   096C F8 17              2590 	lda	hl,23(sp)
   096E 7E                 2591 	ld	a,(hl)
   096F F8 13              2592 	lda	hl,19(sp)
   0971 96                 2593 	sub	a,(hl)
   0972 D2 3F 0A           2594 	jp	nc,00109$
                           2595 ;	paint.c 286
                           2596 ;	genAssign
                           2597 ;	AOP_STK for _move_cursor_y_1_1
   0975 F8 16              2598 	lda	hl,22(sp)
   0977 36 00              2599 	ld	(hl),#0x00
                           2600 ;	genLabel
   0979                    2601 00101$:
                           2602 ;	genPlus
                           2603 ;	AOP_STK for _move_cursor_sloc2_1_0
                           2604 ;	genPlusIncr
                           2605 ;	Can't optimise plus by inc, falling back to the normal way
   0979 F8 11              2606 	lda	hl,17(sp)
   097B 5E                 2607 	ld	e,(hl)
   097C 23                 2608 	inc	hl
   097D 56                 2609 	ld	d,(hl)
   097E 21 02 00           2610 	ld	hl,#0x0002
   0981 19                 2611 	add	hl,de
   0982 45                 2612 	ld	b,l
   0983 4C                 2613 	ld	c,h
                           2614 ;	genPointerGet
                           2615 ;	AOP_STK for _move_cursor_sloc1_1_0
   0984 58                 2616 	ld	e,b
   0985 51                 2617 	ld	d,c
   0986 1A                 2618 	ld	a,(de)
   0987 F8 13              2619 	lda	hl,19(sp)
   0989 77                 2620 	ld	(hl),a
                           2621 ;	genCmpLt
                           2622 ;	AOP_STK for _move_cursor_y_1_1
                           2623 ;	AOP_STK for _move_cursor_sloc1_1_0
                           2624 ;	AOP_STK for _move_cursor_sloc0_1_0
   098A F8 16              2625 	lda	hl,22(sp)
   098C 7E                 2626 	ld	a,(hl)
   098D F8 13              2627 	lda	hl,19(sp)
   098F 96                 2628 	sub	a,(hl)
   0990 3E 00              2629 	ld	a,#0x00
   0992 17                 2630 	rla
   0993 23                 2631 	inc	hl
   0994 77                 2632 	ld	(hl),a
                           2633 ;	genIfx
                           2634 ;	AOP_STK for _move_cursor_sloc0_1_0
   0995 AF                 2635 	xor	a,a
   0996 B6                 2636 	or	a,(hl)
   0997 CA 39 0A           2637 	jp	z,00107$
                           2638 ;	paint.c 289
                           2639 ;	genPlus
                           2640 ;	AOP_HL for _cursor_y
                           2641 ;	AOP_STK for _move_cursor_sloc3_1_0
                           2642 ;	genPlusIncr
                           2643 ;	Can't optimise plus by inc, falling back to the normal way
   099A 21 06 03           2644 	ld	hl,#_cursor_y
   099D 7E                 2645 	ld	a,(hl)
   099E C6 10              2646 	add	a,#0x10
   09A0 F8 10              2647 	lda	hl,16(sp)
                           2648 ;	genPlus
                           2649 ;	AOP_STK for _move_cursor_sloc2_1_0
                           2650 ;	AOP_STK for _move_cursor_sloc4_1_0
                           2651 ;	genPlusIncr
                           2652 ;	Can't optimise plus by inc, falling back to the normal way
   09A2 22                 2653 	ld	(hl+),a
   09A3 5E                 2654 	ld	e,(hl)
   09A4 23                 2655 	inc	hl
   09A5 56                 2656 	ld	d,(hl)
   09A6 21 04 00           2657 	ld	hl,#0x0004
   09A9 19                 2658 	add	hl,de
   09AA 7D                 2659 	ld	a,l
   09AB 54                 2660 	ld	d,h
   09AC F8 0E              2661 	lda	hl,14(sp)
                           2662 ;	genPointerGet
                           2663 ;	AOP_STK for _move_cursor_sloc4_1_0
                           2664 ;	AOP_STK for _move_cursor_sloc5_1_0
   09AE 22                 2665 	ld	(hl+),a
   09AF 72                 2666 	ld	(hl),d
   09B0 5F                 2667 	ld	e,a
   09B1 1A                 2668 	ld	a,(de)
   09B2 2B                 2669 	dec	hl
   09B3 2B                 2670 	dec	hl
   09B4 77                 2671 	ld	(hl),a
                           2672 ;	genMinus
                           2673 ;	AOP_STK for _move_cursor_sloc3_1_0
                           2674 ;	AOP_STK for _move_cursor_sloc5_1_0
                           2675 ;	AOP_STK for _move_cursor_sloc6_1_0
   09B5 F8 10              2676 	lda	hl,16(sp)
   09B7 7E                 2677 	ld	a,(hl)
   09B8 F8 0D              2678 	lda	hl,13(sp)
   09BA 96                 2679 	sub	a,(hl)
   09BB 2B                 2680 	dec	hl
   09BC 77                 2681 	ld	(hl),a
                           2682 ;	genLeftShift
                           2683 ;	AOP_STK for _move_cursor_y_1_1
                           2684 ;	AOP_STK for _move_cursor_sloc7_1_0
   09BD F8 16              2685 	lda	hl,22(sp)
   09BF 7E                 2686 	ld	a,(hl)
   09C0 CB 27              2687 	sla	a
   09C2 CB 17              2688 	rl	a
   09C4 CB 17              2689 	rl	a
   09C6 E6 F8              2690 	and	a,#0xF8
   09C8 F8 0B              2691 	lda	hl,11(sp)
                           2692 ;	genPlus
                           2693 ;	AOP_STK for _move_cursor_sloc6_1_0
                           2694 ;	AOP_STK for _move_cursor_sloc7_1_0
                           2695 ;	AOP_STK for _move_cursor_sloc8_1_0
                           2696 ;	Can't optimise plus by inc, falling back to the normal way
   09CA 22                 2697 	ld	(hl+),a
   09CB 7E                 2698 	ld	a,(hl)
   09CC 2B                 2699 	dec	hl
   09CD 86                 2700 	add	a,(hl)
   09CE 2B                 2701 	dec	hl
   09CF 77                 2702 	ld	(hl),a
                           2703 ;	paint.c 288
                           2704 ;	genPlus
                           2705 ;	AOP_HL for _cursor_x
                           2706 ;	AOP_STK for _move_cursor_sloc9_1_0
                           2707 ;	genPlusIncr
                           2708 ;	Can't optimise plus by inc, falling back to the normal way
   09D0 21 05 03           2709 	ld	hl,#_cursor_x
   09D3 7E                 2710 	ld	a,(hl)
   09D4 C6 08              2711 	add	a,#0x08
   09D6 F8 09              2712 	lda	hl,9(sp)
   09D8 77                 2713 	ld	(hl),a
                           2714 ;	genPlus
                           2715 ;	AOP_STK for _move_cursor_sloc2_1_0
                           2716 ;	AOP_STK for _move_cursor_sloc10_1_0
                           2717 ;	genPlusIncr
                           2718 ;	Can't optimise plus by inc, falling back to the normal way
   09D9 F8 11              2719 	lda	hl,17(sp)
   09DB 5E                 2720 	ld	e,(hl)
   09DC 23                 2721 	inc	hl
   09DD 56                 2722 	ld	d,(hl)
   09DE 21 03 00           2723 	ld	hl,#0x0003
   09E1 19                 2724 	add	hl,de
   09E2 7D                 2725 	ld	a,l
   09E3 54                 2726 	ld	d,h
   09E4 F8 07              2727 	lda	hl,7(sp)
                           2728 ;	genPointerGet
                           2729 ;	AOP_STK for _move_cursor_sloc10_1_0
                           2730 ;	AOP_STK for _move_cursor_sloc11_1_0
   09E6 22                 2731 	ld	(hl+),a
   09E7 72                 2732 	ld	(hl),d
   09E8 5F                 2733 	ld	e,a
   09E9 1A                 2734 	ld	a,(de)
   09EA 2B                 2735 	dec	hl
   09EB 2B                 2736 	dec	hl
   09EC 77                 2737 	ld	(hl),a
                           2738 ;	genMinus
                           2739 ;	AOP_STK for _move_cursor_sloc9_1_0
                           2740 ;	AOP_STK for _move_cursor_sloc11_1_0
                           2741 ;	AOP_STK for _move_cursor_sloc12_1_0
   09ED F8 09              2742 	lda	hl,9(sp)
   09EF 7E                 2743 	ld	a,(hl)
   09F0 F8 06              2744 	lda	hl,6(sp)
   09F2 96                 2745 	sub	a,(hl)
   09F3 2B                 2746 	dec	hl
   09F4 77                 2747 	ld	(hl),a
                           2748 ;	genLeftShift
                           2749 ;	AOP_STK for _move_cursor_x_1_1
                           2750 ;	AOP_STK for _move_cursor_sloc13_1_0
   09F5 F8 17              2751 	lda	hl,23(sp)
   09F7 7E                 2752 	ld	a,(hl)
   09F8 CB 27              2753 	sla	a
   09FA CB 17              2754 	rl	a
   09FC CB 17              2755 	rl	a
   09FE E6 F8              2756 	and	a,#0xF8
   0A00 F8 04              2757 	lda	hl,4(sp)
                           2758 ;	genPlus
                           2759 ;	AOP_STK for _move_cursor_sloc12_1_0
                           2760 ;	AOP_STK for _move_cursor_sloc13_1_0
                           2761 ;	AOP_STK for _move_cursor_sloc14_1_0
                           2762 ;	Can't optimise plus by inc, falling back to the normal way
   0A02 22                 2763 	ld	(hl+),a
   0A03 7E                 2764 	ld	a,(hl)
   0A04 2B                 2765 	dec	hl
   0A05 86                 2766 	add	a,(hl)
   0A06 2B                 2767 	dec	hl
   0A07 77                 2768 	ld	(hl),a
                           2769 ;	paint.c 287
                           2770 ;	genLeftShift
                           2771 ;	AOP_STK for _move_cursor_x_1_1
                           2772 ;	AOP_STK for _move_cursor_sloc15_1_0
   0A08 F8 17              2773 	lda	hl,23(sp)
   0A0A 7E                 2774 	ld	a,(hl)
   0A0B 87                 2775 	add	a,a
   0A0C F8 02              2776 	lda	hl,2(sp)
                           2777 ;	genPlus
                           2778 ;	AOP_STK for _move_cursor_sloc15_1_0
                           2779 ;	AOP_STK for _move_cursor_y_1_1
                           2780 ;	AOP_STK for _move_cursor_sloc16_1_0
                           2781 ;	Can't optimise plus by inc, falling back to the normal way
   0A0E 77                 2782 	ld      (hl),a
                           2783 ; Removed redundent load
   0A0F F8 16              2784 	lda	hl,22(sp)
   0A11 86                 2785 	add	a,(hl)
   0A12 F8 01              2786 	lda	hl,1(sp)
   0A14 77                 2787 	ld	(hl),a
                           2788 ;	genIpush
                           2789 ; _saveRegsForCall: sendSetSize: 0 deInUse: 0 bcInUse: 1 deSending: 0
   0A15 C5                 2790 	push	bc
                           2791 ;	AOP_STK for _move_cursor_sloc8_1_0
   0A16 F8 0C              2792 	lda	hl,12(sp)
   0A18 7E                 2793 	ld	a,(hl)
   0A19 F5                 2794 	push	af
   0A1A 33                 2795 	inc	sp
                           2796 ;	genIpush
                           2797 ;	AOP_STK for _move_cursor_sloc14_1_0
   0A1B F8 06              2798 	lda	hl,6(sp)
   0A1D 7E                 2799 	ld	a,(hl)
   0A1E F5                 2800 	push	af
   0A1F 33                 2801 	inc	sp
                           2802 ;	genIpush
                           2803 ;	AOP_STK for _move_cursor_sloc16_1_0
   0A20 2B                 2804 	dec	hl
   0A21 2B                 2805 	dec	hl
   0A22 7E                 2806 	ld	a,(hl)
   0A23 F5                 2807 	push	af
   0A24 33                 2808 	inc	sp
                           2809 ;	genCall
   0A25 CD 00 00           2810 	call	_move_sprite
   0A28 E8 03              2811 	lda	sp,3(sp)
   0A2A C1                 2812 	pop	bc
                           2813 ;	paint.c 286
                           2814 ;	genPlus
                           2815 ;	AOP_STK for _move_cursor_y_1_1
                           2816 ;	AOP_STK for _move_cursor_sloc17_1_0
                           2817 ;	genPlusIncr
                           2818 ;	Can't optimise plus by inc, falling back to the normal way
   0A2B F8 16              2819 	lda	hl,22(sp)
   0A2D 7E                 2820 	ld	a,(hl)
   0A2E C6 01              2821 	add	a,#0x01
   0A30 F8 00              2822 	lda	hl,0(sp)
                           2823 ;	genAssign
                           2824 ;	AOP_STK for _move_cursor_sloc17_1_0
                           2825 ;	AOP_STK for _move_cursor_y_1_1
   0A32 77                 2826 	ld      (hl),a
                           2827 ; Removed redundent load
   0A33 F8 16              2828 	lda	hl,22(sp)
   0A35 77                 2829 	ld	(hl),a
                           2830 ;	genGoto
   0A36 C3 79 09           2831 	jp	00101$
                           2832 ;	genLabel
   0A39                    2833 00107$:
                           2834 ;	paint.c 285
                           2835 ;	genPlus
                           2836 ;	AOP_STK for _move_cursor_x_1_1
                           2837 ;	genPlusIncr
   0A39 F8 17              2838 	lda	hl,23(sp)
   0A3B 34                 2839 	inc	(hl)
                           2840 ;	genGoto
   0A3C C3 40 09           2841 	jp	00105$
                           2842 ;	genLabel
   0A3F                    2843 00109$:
                           2844 ;	genEndFunction
   0A3F E8 18              2845 	lda	sp,24(sp)
   0A41 C9                 2846 	ret
   0A42                    2847 ___move_cursor_end:
                           2848 ;	paint.c 292
                           2849 ;	genLabel
                           2850 ;	genFunction
                           2851 ;	---------------------------------
                           2852 ; Function move_menu_cursor
                           2853 ; ---------------------------------
   0A42                    2854 ___move_menu_cursor_start:
   0A42                    2855 _move_menu_cursor:
   0A42 E8 FC              2856 	lda	sp,-4(sp)
                           2857 ;	paint.c 296
                           2858 ;	genMult
                           2859 ;	AOP_HL for _menu_cursor_pos
   0A44 21 04 03           2860 	ld	hl,#_menu_cursor_pos
   0A47 5E                 2861 	ld	e,(hl)
   0A48 16 00              2862 	ld	d,#0x00
   0A4A 6B                 2863 	ld	l,e
   0A4B 62                 2864 	ld	h,d
   0A4C 29                 2865 	add	hl,hl
   0A4D 29                 2866 	add	hl,hl
   0A4E 19                 2867 	add	hl,de
   0A4F 29                 2868 	add	hl,hl
   0A50 4D                 2869 	ld	c,l
   0A51 44                 2870 	ld	b,h
                           2871 ;	genPlus
                           2872 ;	Can't optimise plus by inc, falling back to the normal way
   0A52 21 10 01           2873 	ld	hl,#_icons
   0A55 09                 2874 	add	hl,bc
   0A56 4D                 2875 	ld	c,l
   0A57 44                 2876 	ld	b,h
                           2877 ;	genPlus
                           2878 ;	AOP_STK for _move_menu_cursor_sloc0_1_0
                           2879 ;	genPlusIncr
                           2880 ;	Can't optimise plus by inc, falling back to the normal way
   0A58 21 02 00           2881 	ld	hl,#0x0002
   0A5B 09                 2882 	add	hl,bc
   0A5C 7D                 2883 	ld	a,l
   0A5D 54                 2884 	ld	d,h
   0A5E F8 02              2885 	lda	hl,2(sp)
                           2886 ;	genPointerGet
                           2887 ;	AOP_STK for _move_menu_cursor_sloc0_1_0
                           2888 ;	AOP_STK for _move_menu_cursor_sloc1_1_0
   0A60 22                 2889 	ld	(hl+),a
   0A61 72                 2890 	ld	(hl),d
   0A62 5F                 2891 	ld	e,a
   0A63 1A                 2892 	ld	a,(de)
   0A64 2B                 2893 	dec	hl
   0A65 2B                 2894 	dec	hl
   0A66 77                 2895 	ld	(hl),a
                           2896 ;	genPlus
                           2897 ;	AOP_STK for _move_menu_cursor_sloc0_1_0
                           2898 ;	genPlusIncr
                           2899 ;	Can't optimise plus by inc, falling back to the normal way
   0A67 21 04 00           2900 	ld	hl,#0x0004
   0A6A 09                 2901 	add	hl,bc
   0A6B 7D                 2902 	ld	a,l
   0A6C 54                 2903 	ld	d,h
   0A6D F8 02              2904 	lda	hl,2(sp)
                           2905 ;	genPointerGet
                           2906 ;	AOP_STK for _move_menu_cursor_sloc0_1_0
                           2907 ;	AOP_STK for _move_menu_cursor_sloc2_1_0
   0A6F 22                 2908 	ld	(hl+),a
   0A70 72                 2909 	ld	(hl),d
   0A71 5F                 2910 	ld	e,a
   0A72 1A                 2911 	ld	a,(de)
   0A73 F8 00              2912 	lda	hl,0(sp)
                           2913 ;	genPlus
                           2914 ;	AOP_STK for _move_menu_cursor_sloc1_1_0
                           2915 ;	AOP_STK for _move_menu_cursor_sloc2_1_0
                           2916 ;	AOP_STK for _move_menu_cursor_sloc0_1_0
                           2917 ;	Can't optimise plus by inc, falling back to the normal way
   0A75 22                 2918 	ld	(hl+),a
   0A76 7E                 2919 	ld	a,(hl)
   0A77 2B                 2920 	dec	hl
   0A78 86                 2921 	add	a,(hl)
   0A79 23                 2922 	inc	hl
   0A7A 23                 2923 	inc	hl
                           2924 ;	genLeftShift
                           2925 ;	AOP_STK for _move_menu_cursor_sloc0_1_0
                           2926 ;	AOP_STK for _move_menu_cursor_sloc2_1_0
   0A7B 77                 2927 	ld      (hl),a
                           2928 ; Removed redundent load
   0A7C CB 27              2929 	sla	a
   0A7E CB 17              2930 	rl	a
   0A80 CB 17              2931 	rl	a
   0A82 E6 F8              2932 	and	a,#0xF8
   0A84 2B                 2933 	dec	hl
   0A85 2B                 2934 	dec	hl
                           2935 ;	genPlus
                           2936 ;	AOP_STK for _move_menu_cursor_sloc2_1_0
                           2937 ;	AOP_STK for _move_menu_cursor_sloc1_1_0
                           2938 ;	genPlusIncr
                           2939 ;	Can't optimise plus by inc, falling back to the normal way
   0A86 77                 2940 	ld      (hl),a
                           2941 ; Removed redundent load
   0A87 C6 0C              2942 	add	a,#0x0C
   0A89 23                 2943 	inc	hl
   0A8A 77                 2944 	ld	(hl),a
                           2945 ;	paint.c 295
                           2946 ;	genPlus
                           2947 ;	AOP_STK for _move_menu_cursor_sloc0_1_0
                           2948 ;	genPlusIncr
                           2949 ;	Can't optimise plus by inc, falling back to the normal way
   0A8B 21 01 00           2950 	ld	hl,#0x0001
   0A8E 09                 2951 	add	hl,bc
   0A8F 7D                 2952 	ld	a,l
   0A90 54                 2953 	ld	d,h
   0A91 F8 02              2954 	lda	hl,2(sp)
                           2955 ;	genPointerGet
                           2956 ;	AOP_STK for _move_menu_cursor_sloc0_1_0
                           2957 ;	AOP_STK for _move_menu_cursor_sloc2_1_0
   0A93 22                 2958 	ld	(hl+),a
   0A94 72                 2959 	ld	(hl),d
   0A95 5F                 2960 	ld	e,a
   0A96 1A                 2961 	ld	a,(de)
   0A97 F8 00              2962 	lda	hl,0(sp)
   0A99 77                 2963 	ld	(hl),a
                           2964 ;	genPlus
                           2965 ;	genPlusIncr
   0A9A 03                 2966 	inc	bc
   0A9B 03                 2967 	inc	bc
   0A9C 03                 2968 	inc	bc
                           2969 ;	genPointerGet
   0A9D 0A                 2970 	ld	a,(bc)
   0A9E 4F                 2971 	ld	c,a
                           2972 ;	genPlus
                           2973 ;	AOP_STK for _move_menu_cursor_sloc2_1_0
                           2974 ;	Can't optimise plus by inc, falling back to the normal way
   0A9F 7E                 2975 	ld	a,(hl)
   0AA0 81                 2976 	add	a,c
                           2977 ;	genLeftShift
   0AA1 4F                 2978 	ld	c,a
   0AA2 CB 27              2979 	sla	a
   0AA4 CB 17              2980 	rl	a
   0AA6 CB 17              2981 	rl	a
   0AA8 E6 F8              2982 	and	a,#0xF8
   0AAA 4F                 2983 	ld	c,a
                           2984 ;	genPlus
                           2985 ;	genPlusIncr
                           2986 ; Removed redundent load
   0AAB 0C                 2987 	inc	c
   0AAC 0C                 2988 	inc	c
   0AAD 0C                 2989 	inc	c
   0AAE 0C                 2990 	inc	c
                           2991 ;	paint.c 294
                           2992 ;	genIpush
                           2993 ; _saveRegsForCall: sendSetSize: 0 deInUse: 0 bcInUse: 0 deSending: 0
                           2994 ;	AOP_STK for _move_menu_cursor_sloc1_1_0
   0AAF 23                 2995 	inc	hl
   0AB0 7E                 2996 	ld	a,(hl)
   0AB1 F5                 2997 	push	af
   0AB2 33                 2998 	inc	sp
                           2999 ;	genIpush
   0AB3 79                 3000 	ld	a,c
   0AB4 F5                 3001 	push	af
   0AB5 33                 3002 	inc	sp
                           3003 ;	genIpush
   0AB6 3E 00              3004 	ld	a,#0x00
   0AB8 F5                 3005 	push	af
   0AB9 33                 3006 	inc	sp
                           3007 ;	genCall
   0ABA CD 00 00           3008 	call	_move_sprite
   0ABD E8 03              3009 	lda	sp,3(sp)
                           3010 ;	genLabel
   0ABF                    3011 00101$:
                           3012 ;	genEndFunction
   0ABF E8 04              3013 	lda	sp,4(sp)
   0AC1 C9                 3014 	ret
   0AC2                    3015 ___move_menu_cursor_end:
                           3016 ;	paint.c 299
                           3017 ;	genLabel
                           3018 ;	genFunction
                           3019 ;	---------------------------------
                           3020 ; Function set_icon
                           3021 ; ---------------------------------
   0AC2                    3022 ___set_icon_start:
   0AC2                    3023 _set_icon:
   0AC2 E8 D6              3024 	lda	sp,-42(sp)
                           3025 ;	paint.c 303
                           3026 ;	genAssign
                           3027 ;	AOP_STK for _set_icon_x_1_1
   0AC4 F8 29              3028 	lda	hl,41(sp)
   0AC6 36 00              3029 	ld	(hl),#0x00
                           3030 ;	genLabel
   0AC8                    3031 00105$:
                           3032 ;	genMult
                           3033 ;	AOP_STK for 
   0AC8 F8 2C              3034 	lda	hl,44(sp)
   0ACA 5E                 3035 	ld	e,(hl)
   0ACB 16 00              3036 	ld	d,#0x00
   0ACD 6B                 3037 	ld	l,e
   0ACE 62                 3038 	ld	h,d
   0ACF 29                 3039 	add	hl,hl
   0AD0 29                 3040 	add	hl,hl
   0AD1 19                 3041 	add	hl,de
   0AD2 29                 3042 	add	hl,hl
   0AD3 45                 3043 	ld	b,l
   0AD4 4C                 3044 	ld	c,h
                           3045 ;	genPlus
                           3046 ;	Can't optimise plus by inc, falling back to the normal way
   0AD5 3E 10              3047 	ld	a,#<_icons
   0AD7 80                 3048 	add	a,b
   0AD8 47                 3049 	ld	b,a
   0AD9 3E 01              3050 	ld	a,#>_icons
   0ADB 89                 3051 	adc	a,c
   0ADC 4F                 3052 	ld	c,a
                           3053 ;	genPlus
                           3054 ;	AOP_STK for _set_icon_sloc0_1_0
                           3055 ;	genPlusIncr
                           3056 ;	Can't optimise plus by inc, falling back to the normal way
   0ADD 58                 3057 	ld	e,b
   0ADE 51                 3058 	ld	d,c
   0ADF 21 03 00           3059 	ld	hl,#0x0003
   0AE2 19                 3060 	add	hl,de
   0AE3 7D                 3061 	ld	a,l
   0AE4 54                 3062 	ld	d,h
   0AE5 F8 24              3063 	lda	hl,36(sp)
                           3064 ;	genPointerGet
                           3065 ;	AOP_STK for _set_icon_sloc0_1_0
                           3066 ;	AOP_STK for _set_icon_sloc1_1_0
   0AE7 22                 3067 	ld	(hl+),a
   0AE8 72                 3068 	ld	(hl),d
   0AE9 5F                 3069 	ld	e,a
   0AEA 1A                 3070 	ld	a,(de)
   0AEB 2B                 3071 	dec	hl
   0AEC 2B                 3072 	dec	hl
   0AED 77                 3073 	ld	(hl),a
                           3074 ;	genCmpLt
                           3075 ;	AOP_STK for _set_icon_x_1_1
                           3076 ;	AOP_STK for _set_icon_sloc1_1_0
   0AEE F8 29              3077 	lda	hl,41(sp)
   0AF0 7E                 3078 	ld	a,(hl)
   0AF1 F8 23              3079 	lda	hl,35(sp)
   0AF3 96                 3080 	sub	a,(hl)
   0AF4 D2 3B 0C           3081 	jp	nc,00109$
                           3082 ;	paint.c 304
                           3083 ;	genAssign
                           3084 ;	AOP_STK for _set_icon_y_1_1
   0AF7 F8 28              3085 	lda	hl,40(sp)
   0AF9 36 00              3086 	ld	(hl),#0x00
                           3087 ;	genLabel
   0AFB                    3088 00101$:
                           3089 ;	genPlus
                           3090 ;	AOP_STK for _set_icon_sloc0_1_0
                           3091 ;	genPlusIncr
                           3092 ;	Can't optimise plus by inc, falling back to the normal way
   0AFB 58                 3093 	ld	e,b
   0AFC 51                 3094 	ld	d,c
   0AFD 21 04 00           3095 	ld	hl,#0x0004
   0B00 19                 3096 	add	hl,de
   0B01 7D                 3097 	ld	a,l
   0B02 54                 3098 	ld	d,h
   0B03 F8 24              3099 	lda	hl,36(sp)
                           3100 ;	genPointerGet
                           3101 ;	AOP_STK for _set_icon_sloc0_1_0
                           3102 ;	AOP_STK for _set_icon_sloc1_1_0
   0B05 22                 3103 	ld	(hl+),a
   0B06 72                 3104 	ld	(hl),d
   0B07 5F                 3105 	ld	e,a
   0B08 1A                 3106 	ld	a,(de)
   0B09 2B                 3107 	dec	hl
   0B0A 2B                 3108 	dec	hl
   0B0B 77                 3109 	ld	(hl),a
                           3110 ;	genCmpLt
                           3111 ;	AOP_STK for _set_icon_y_1_1
                           3112 ;	AOP_STK for _set_icon_sloc1_1_0
                           3113 ;	AOP_STK for _set_icon_sloc2_1_0
   0B0C F8 28              3114 	lda	hl,40(sp)
   0B0E 7E                 3115 	ld	a,(hl)
   0B0F F8 23              3116 	lda	hl,35(sp)
   0B11 96                 3117 	sub	a,(hl)
   0B12 3E 00              3118 	ld	a,#0x00
   0B14 17                 3119 	rla
   0B15 2B                 3120 	dec	hl
   0B16 77                 3121 	ld	(hl),a
                           3122 ;	genIfx
                           3123 ;	AOP_STK for _set_icon_sloc2_1_0
   0B17 AF                 3124 	xor	a,a
   0B18 B6                 3125 	or	a,(hl)
   0B19 CA 35 0C           3126 	jp	z,00107$
                           3127 ;	paint.c 305
                           3128 ;	genPointerGet
                           3129 ;	AOP_STK for _set_icon_sloc3_1_0
   0B1C 58                 3130 	ld	e,b
   0B1D 51                 3131 	ld	d,c
   0B1E 1A                 3132 	ld	a,(de)
   0B1F 2B                 3133 	dec	hl
   0B20 77                 3134 	ld	(hl),a
                           3135 ;	genCast
                           3136 ;	AOP_STK for _set_icon_x_1_1
                           3137 ;	AOP_STK for _set_icon_sloc4_1_0
   0B21 F8 29              3138 	lda	hl,41(sp)
   0B23 7E                 3139 	ld	a,(hl)
   0B24 F8 1F              3140 	lda	hl,31(sp)
   0B26 22                 3141 	ld	(hl+),a
   0B27 36 00              3142 	ld	(hl),#0x00
                           3143 ;	genLeftShift
                           3144 ;	AOP_STK for _set_icon_sloc4_1_0
                           3145 ;	AOP_STK for _set_icon_sloc5_1_0
   0B29 2B                 3146 	dec	hl
   0B2A 7E                 3147 	ld	a,(hl)
   0B2B 2B                 3148 	dec	hl
   0B2C 2B                 3149 	dec	hl
   0B2D 77                 3150 	ld	(hl),a
   0B2E F8 20              3151 	lda	hl,32(sp)
   0B30 7E                 3152 	ld	a,(hl)
   0B31 2B                 3153 	dec	hl
   0B32 2B                 3154 	dec	hl
   0B33 32                 3155 	ld      (hl-),a
   0B34 CB 26              3156 	sla	(hl)
   0B36 23                 3157 	inc	hl
   0B37 CB 16              3158 	rl	(hl)
                           3159 ;	genCast
                           3160 ;	AOP_STK for _set_icon_sloc3_1_0
                           3161 ;	AOP_STK for _set_icon_sloc6_1_0
   0B39 F8 21              3162 	lda	hl,33(sp)
   0B3B 7E                 3163 	ld	a,(hl)
   0B3C F8 1B              3164 	lda	hl,27(sp)
   0B3E 22                 3165 	ld	(hl+),a
   0B3F 36 00              3166 	ld	(hl),#0x00
                           3167 ;	genPlus
                           3168 ;	AOP_STK for _set_icon_sloc6_1_0
                           3169 ;	AOP_STK for _set_icon_sloc5_1_0
                           3170 ;	AOP_STK for _set_icon_sloc7_1_0
                           3171 ;	Can't optimise plus by inc, falling back to the normal way
   0B41 2B                 3172 	dec	hl
   0B42 5E                 3173 	ld	e,(hl)
   0B43 23                 3174 	inc	hl
   0B44 56                 3175 	ld	d,(hl)
   0B45 23                 3176 	inc	hl
   0B46 2A                 3177 	ld	a,(hl+)
   0B47 66                 3178 	ld	h,(hl)
   0B48 6F                 3179 	ld	l,a
   0B49 19                 3180 	add	hl,de
   0B4A 7D                 3181 	ld	a,l
   0B4B 54                 3182 	ld	d,h
   0B4C F8 19              3183 	lda	hl,25(sp)
   0B4E 22                 3184 	ld	(hl+),a
   0B4F 72                 3185 	ld	(hl),d
                           3186 ;	genCast
                           3187 ;	AOP_STK for _set_icon_y_1_1
                           3188 ;	AOP_STK for _set_icon_sloc8_1_0
   0B50 F8 28              3189 	lda	hl,40(sp)
   0B52 7E                 3190 	ld	a,(hl)
   0B53 F8 17              3191 	lda	hl,23(sp)
   0B55 22                 3192 	ld	(hl+),a
   0B56 36 00              3193 	ld	(hl),#0x00
                           3194 ;	genPlus
                           3195 ;	AOP_STK for _set_icon_sloc7_1_0
                           3196 ;	AOP_STK for _set_icon_sloc8_1_0
                           3197 ;	AOP_STK for _set_icon_index_2_2
                           3198 ;	Can't optimise plus by inc, falling back to the normal way
   0B58 23                 3199 	inc	hl
   0B59 5E                 3200 	ld	e,(hl)
   0B5A 23                 3201 	inc	hl
   0B5B 56                 3202 	ld	d,(hl)
   0B5C F8 17              3203 	lda	hl,23(sp)
   0B5E 2A                 3204 	ld	a,(hl+)
   0B5F 66                 3205 	ld	h,(hl)
   0B60 6F                 3206 	ld	l,a
   0B61 19                 3207 	add	hl,de
   0B62 7D                 3208 	ld	a,l
   0B63 54                 3209 	ld	d,h
   0B64 F8 26              3210 	lda	hl,38(sp)
   0B66 22                 3211 	ld	(hl+),a
   0B67 72                 3212 	ld	(hl),d
                           3213 ;	genAssign
                           3214 ;	AOP_STK for _set_icon_index_2_2
                           3215 ;	(registers are the same)
                           3216 ;	paint.c 309
                           3217 ;	genLeftShift
                           3218 ;	AOP_STK for _set_icon_index_2_2
                           3219 ;	AOP_STK for _set_icon_sloc9_1_0
   0B68 2B                 3220 	dec	hl
   0B69 7E                 3221 	ld	a,(hl)
   0B6A F8 15              3222 	lda	hl,21(sp)
   0B6C 77                 3223 	ld	(hl),a
   0B6D F8 27              3224 	lda	hl,39(sp)
   0B6F 7E                 3225 	ld	a,(hl)
   0B70 F8 16              3226 	lda	hl,22(sp)
   0B72 77                 3227 	ld	(hl),a
   0B73 3E 05              3228 	ld	a,#0x04+1
   0B75 18 07              3229 	jr	00121$
   0B77                    3230 00120$:
   0B77 F8 15              3231 	lda	hl,21(sp)
   0B79 CB 26              3232 	sla	(hl)
   0B7B 23                 3233 	inc	hl
   0B7C CB 16              3234 	rl	(hl)
   0B7E                    3235 00121$:
   0B7E 3D                 3236 	dec	a
   0B7F 20 F6              3237 	jr	nz,00120$
                           3238 ;	genPlus
                           3239 ;	AOP_STK for _set_icon_sloc9_1_0
                           3240 ;	AOP_STK for _set_icon_sloc10_1_0
                           3241 ;	Can't optimise plus by inc, falling back to the normal way
   0B81 11 00 00           3242 	ld	de,#_data_buffer
   0B84 F8 15              3243 	lda	hl,21(sp)
   0B86 2A                 3244 	ld	a,(hl+)
   0B87 66                 3245 	ld	h,(hl)
   0B88 6F                 3246 	ld	l,a
   0B89 19                 3247 	add	hl,de
   0B8A 7D                 3248 	ld	a,l
   0B8B 54                 3249 	ld	d,h
   0B8C F8 13              3250 	lda	hl,19(sp)
   0B8E 22                 3251 	ld	(hl+),a
   0B8F 72                 3252 	ld	(hl),d
                           3253 ;	genCast
                           3254 ;	AOP_STK for _set_icon_sloc10_1_0
                           3255 ;	AOP_STK for _set_icon_sloc11_1_0
   0B90 2B                 3256 	dec	hl
   0B91 7E                 3257 	ld	a,(hl)
   0B92 2B                 3258 	dec	hl
   0B93 2B                 3259 	dec	hl
   0B94 77                 3260 	ld	(hl),a
   0B95 F8 14              3261 	lda	hl,20(sp)
   0B97 7E                 3262 	ld	a,(hl)
   0B98 2B                 3263 	dec	hl
   0B99 2B                 3264 	dec	hl
   0B9A 77                 3265 	ld	(hl),a
                           3266 ;	paint.c 308
                           3267 ;	genIfx
                           3268 ;	AOP_STK for 
   0B9B AF                 3269 	xor	a,a
   0B9C F8 2D              3270 	lda	hl,45(sp)
   0B9E B6                 3271 	or	a,(hl)
   0B9F CA BB 0B           3272 	jp	z,00111$
                           3273 ;	genPlus
                           3274 ;	AOP_STK for _set_icon_sloc9_1_0
                           3275 ;	AOP_STK for _set_icon_sloc12_1_0
                           3276 ;	Can't optimise plus by inc, falling back to the normal way
   0BA2 11 C4 04           3277 	ld	de,#_selected_data
   0BA5 F8 15              3278 	lda	hl,21(sp)
   0BA7 2A                 3279 	ld	a,(hl+)
   0BA8 66                 3280 	ld	h,(hl)
   0BA9 6F                 3281 	ld	l,a
   0BAA 19                 3282 	add	hl,de
   0BAB 7D                 3283 	ld	a,l
   0BAC 54                 3284 	ld	d,h
   0BAD F8 0F              3285 	lda	hl,15(sp)
   0BAF 22                 3286 	ld	(hl+),a
   0BB0 72                 3287 	ld	(hl),d
                           3288 ;	genAssign
                           3289 ;	AOP_STK for _set_icon_sloc12_1_0
                           3290 ;	AOP_STK for _set_icon_sloc13_1_0
   0BB1 2B                 3291 	dec	hl
   0BB2 2A                 3292 	ld	a,(hl+)
   0BB3 5E                 3293 	ld	e,(hl)
   0BB4 F8 0D              3294 	lda	hl,13(sp)
   0BB6 22                 3295 	ld	(hl+),a
   0BB7 73                 3296 	ld	(hl),e
                           3297 ;	genGoto
   0BB8 C3 D0 0B           3298 	jp	00112$
                           3299 ;	genLabel
   0BBB                    3300 00111$:
                           3301 ;	genPlus
                           3302 ;	AOP_STK for _set_icon_sloc9_1_0
                           3303 ;	AOP_STK for _set_icon_sloc14_1_0
                           3304 ;	Can't optimise plus by inc, falling back to the normal way
   0BBB 11 C4 01           3305 	ld	de,#_data
   0BBE F8 15              3306 	lda	hl,21(sp)
   0BC0 2A                 3307 	ld	a,(hl+)
   0BC1 66                 3308 	ld	h,(hl)
   0BC2 6F                 3309 	ld	l,a
   0BC3 19                 3310 	add	hl,de
   0BC4 7D                 3311 	ld	a,l
   0BC5 54                 3312 	ld	d,h
   0BC6 F8 0B              3313 	lda	hl,11(sp)
   0BC8 22                 3314 	ld	(hl+),a
   0BC9 72                 3315 	ld	(hl),d
                           3316 ;	genAssign
                           3317 ;	AOP_STK for _set_icon_sloc14_1_0
                           3318 ;	AOP_STK for _set_icon_sloc13_1_0
   0BCA 2B                 3319 	dec	hl
   0BCB 2A                 3320 	ld	a,(hl+)
   0BCC 5E                 3321 	ld	e,(hl)
   0BCD 23                 3322 	inc	hl
   0BCE 22                 3323 	ld	(hl+),a
   0BCF 73                 3324 	ld	(hl),e
                           3325 ;	genLabel
   0BD0                    3326 00112$:
                           3327 ;	genCast
                           3328 ;	AOP_STK for _set_icon_sloc13_1_0
                           3329 ;	AOP_STK for _set_icon_sloc15_1_0
   0BD0 F8 0D              3330 	lda	hl,13(sp)
   0BD2 7E                 3331 	ld	a,(hl)
   0BD3 F8 09              3332 	lda	hl,9(sp)
   0BD5 77                 3333 	ld	(hl),a
   0BD6 F8 0E              3334 	lda	hl,14(sp)
   0BD8 7E                 3335 	ld	a,(hl)
   0BD9 F8 0A              3336 	lda	hl,10(sp)
   0BDB 77                 3337 	ld	(hl),a
                           3338 ;	paint.c 307
                           3339 ;	genPlus
                           3340 ;	AOP_STK for _set_icon_sloc16_1_0
                           3341 ;	genPlusIncr
                           3342 ;	Can't optimise plus by inc, falling back to the normal way
   0BDC 58                 3343 	ld	e,b
   0BDD 51                 3344 	ld	d,c
   0BDE 21 02 00           3345 	ld	hl,#0x0002
   0BE1 19                 3346 	add	hl,de
   0BE2 7D                 3347 	ld	a,l
   0BE3 54                 3348 	ld	d,h
   0BE4 F8 07              3349 	lda	hl,7(sp)
                           3350 ;	genPointerGet
                           3351 ;	AOP_STK for _set_icon_sloc16_1_0
                           3352 ;	AOP_STK for _set_icon_sloc17_1_0
   0BE6 22                 3353 	ld	(hl+),a
   0BE7 72                 3354 	ld	(hl),d
   0BE8 5F                 3355 	ld	e,a
   0BE9 1A                 3356 	ld	a,(de)
   0BEA 2B                 3357 	dec	hl
   0BEB 2B                 3358 	dec	hl
                           3359 ;	genPlus
                           3360 ;	AOP_STK for _set_icon_sloc17_1_0
                           3361 ;	AOP_STK for _set_icon_y_1_1
                           3362 ;	AOP_STK for _set_icon_sloc18_1_0
                           3363 ;	Can't optimise plus by inc, falling back to the normal way
   0BEC 77                 3364 	ld      (hl),a
                           3365 ; Removed redundent load
   0BED F8 28              3366 	lda	hl,40(sp)
   0BEF 86                 3367 	add	a,(hl)
   0BF0 F8 05              3368 	lda	hl,5(sp)
   0BF2 77                 3369 	ld	(hl),a
                           3370 ;	paint.c 306
                           3371 ;	genPlus
                           3372 ;	AOP_STK for _set_icon_sloc19_1_0
                           3373 ;	genPlusIncr
                           3374 ;	Can't optimise plus by inc, falling back to the normal way
   0BF3 58                 3375 	ld	e,b
   0BF4 51                 3376 	ld	d,c
   0BF5 21 01 00           3377 	ld	hl,#0x0001
   0BF8 19                 3378 	add	hl,de
   0BF9 7D                 3379 	ld	a,l
   0BFA 54                 3380 	ld	d,h
   0BFB F8 03              3381 	lda	hl,3(sp)
                           3382 ;	genPointerGet
                           3383 ;	AOP_STK for _set_icon_sloc19_1_0
                           3384 ;	AOP_STK for _set_icon_sloc20_1_0
   0BFD 22                 3385 	ld	(hl+),a
   0BFE 72                 3386 	ld	(hl),d
   0BFF 5F                 3387 	ld	e,a
   0C00 1A                 3388 	ld	a,(de)
   0C01 2B                 3389 	dec	hl
   0C02 2B                 3390 	dec	hl
                           3391 ;	genPlus
                           3392 ;	AOP_STK for _set_icon_sloc20_1_0
                           3393 ;	AOP_STK for _set_icon_x_1_1
                           3394 ;	AOP_STK for _set_icon_sloc21_1_0
                           3395 ;	Can't optimise plus by inc, falling back to the normal way
   0C03 77                 3396 	ld      (hl),a
                           3397 ; Removed redundent load
   0C04 F8 29              3398 	lda	hl,41(sp)
   0C06 86                 3399 	add	a,(hl)
   0C07 F8 01              3400 	lda	hl,1(sp)
   0C09 77                 3401 	ld	(hl),a
                           3402 ;	genIpush
                           3403 ; _saveRegsForCall: sendSetSize: 0 deInUse: 0 bcInUse: 1 deSending: 0
   0C0A C5                 3404 	push	bc
                           3405 ;	AOP_STK for _set_icon_sloc11_1_0
   0C0B F8 13              3406 	lda	hl,19(sp)
   0C0D 2A                 3407 	ld	a,(hl+)
   0C0E 66                 3408 	ld	h,(hl)
   0C0F 6F                 3409 	ld	l,a
   0C10 E5                 3410 	push	hl
                           3411 ;	genIpush
                           3412 ;	AOP_STK for _set_icon_sloc15_1_0
   0C11 F8 0D              3413 	lda	hl,13(sp)
   0C13 2A                 3414 	ld	a,(hl+)
   0C14 66                 3415 	ld	h,(hl)
   0C15 6F                 3416 	ld	l,a
   0C16 E5                 3417 	push	hl
                           3418 ;	genIpush
                           3419 ;	AOP_STK for _set_icon_sloc18_1_0
   0C17 F8 0B              3420 	lda	hl,11(sp)
   0C19 7E                 3421 	ld	a,(hl)
   0C1A F5                 3422 	push	af
   0C1B 33                 3423 	inc	sp
                           3424 ;	genIpush
                           3425 ;	AOP_STK for _set_icon_sloc21_1_0
   0C1C F8 08              3426 	lda	hl,8(sp)
   0C1E 7E                 3427 	ld	a,(hl)
   0C1F F5                 3428 	push	af
   0C20 33                 3429 	inc	sp
                           3430 ;	genCall
   0C21 CD 00 00           3431 	call	_switch_data
   0C24 E8 06              3432 	lda	sp,6(sp)
   0C26 C1                 3433 	pop	bc
                           3434 ;	paint.c 304
                           3435 ;	genPlus
                           3436 ;	AOP_STK for _set_icon_y_1_1
                           3437 ;	AOP_STK for _set_icon_sloc22_1_0
                           3438 ;	genPlusIncr
                           3439 ;	Can't optimise plus by inc, falling back to the normal way
   0C27 F8 28              3440 	lda	hl,40(sp)
   0C29 7E                 3441 	ld	a,(hl)
   0C2A C6 01              3442 	add	a,#0x01
   0C2C F8 00              3443 	lda	hl,0(sp)
                           3444 ;	genAssign
                           3445 ;	AOP_STK for _set_icon_sloc22_1_0
                           3446 ;	AOP_STK for _set_icon_y_1_1
   0C2E 77                 3447 	ld      (hl),a
                           3448 ; Removed redundent load
   0C2F F8 28              3449 	lda	hl,40(sp)
   0C31 77                 3450 	ld	(hl),a
                           3451 ;	genGoto
   0C32 C3 FB 0A           3452 	jp	00101$
                           3453 ;	genLabel
   0C35                    3454 00107$:
                           3455 ;	paint.c 303
                           3456 ;	genPlus
                           3457 ;	AOP_STK for _set_icon_x_1_1
                           3458 ;	genPlusIncr
   0C35 F8 29              3459 	lda	hl,41(sp)
   0C37 34                 3460 	inc	(hl)
                           3461 ;	genGoto
   0C38 C3 C8 0A           3462 	jp	00105$
                           3463 ;	genLabel
   0C3B                    3464 00109$:
                           3465 ;	genEndFunction
   0C3B E8 2A              3466 	lda	sp,42(sp)
   0C3D C9                 3467 	ret
   0C3E                    3468 ___set_icon_end:
                           3469 ;	paint.c 313
                           3470 ;	genLabel
                           3471 ;	genFunction
                           3472 ;	---------------------------------
                           3473 ; Function change_icon
                           3474 ; ---------------------------------
   0C3E                    3475 ___change_icon_start:
   0C3E                    3476 _change_icon:
   0C3E E8 CB              3477 	lda	sp,-53(sp)
                           3478 ;	paint.c 317
                           3479 ;	genAssign
                           3480 ;	AOP_STK for _change_icon_x_1_1
   0C40 F8 34              3481 	lda	hl,52(sp)
   0C42 36 00              3482 	ld	(hl),#0x00
                           3483 ;	genLabel
   0C44                    3484 00105$:
                           3485 ;	genMult
                           3486 ;	AOP_STK for 
   0C44 F8 37              3487 	lda	hl,55(sp)
   0C46 5E                 3488 	ld	e,(hl)
   0C47 16 00              3489 	ld	d,#0x00
   0C49 6B                 3490 	ld	l,e
   0C4A 62                 3491 	ld	h,d
   0C4B 29                 3492 	add	hl,hl
   0C4C 29                 3493 	add	hl,hl
   0C4D 19                 3494 	add	hl,de
   0C4E 29                 3495 	add	hl,hl
   0C4F 45                 3496 	ld	b,l
   0C50 4C                 3497 	ld	c,h
                           3498 ;	genPlus
                           3499 ;	Can't optimise plus by inc, falling back to the normal way
   0C51 3E 10              3500 	ld	a,#<_icons
   0C53 80                 3501 	add	a,b
   0C54 47                 3502 	ld	b,a
   0C55 3E 01              3503 	ld	a,#>_icons
   0C57 89                 3504 	adc	a,c
   0C58 4F                 3505 	ld	c,a
                           3506 ;	genPlus
                           3507 ;	AOP_STK for _change_icon_sloc0_1_0
                           3508 ;	genPlusIncr
                           3509 ;	Can't optimise plus by inc, falling back to the normal way
   0C59 58                 3510 	ld	e,b
   0C5A 51                 3511 	ld	d,c
   0C5B 21 03 00           3512 	ld	hl,#0x0003
   0C5E 19                 3513 	add	hl,de
   0C5F 7D                 3514 	ld	a,l
   0C60 54                 3515 	ld	d,h
   0C61 F8 31              3516 	lda	hl,49(sp)
                           3517 ;	genPointerGet
                           3518 ;	AOP_STK for _change_icon_sloc0_1_0
                           3519 ;	AOP_STK for _change_icon_sloc1_1_0
   0C63 22                 3520 	ld	(hl+),a
   0C64 72                 3521 	ld	(hl),d
   0C65 5F                 3522 	ld	e,a
   0C66 1A                 3523 	ld	a,(de)
   0C67 2B                 3524 	dec	hl
   0C68 2B                 3525 	dec	hl
   0C69 77                 3526 	ld	(hl),a
                           3527 ;	genCmpLt
                           3528 ;	AOP_STK for _change_icon_x_1_1
                           3529 ;	AOP_STK for _change_icon_sloc1_1_0
   0C6A F8 34              3530 	lda	hl,52(sp)
   0C6C 7E                 3531 	ld	a,(hl)
   0C6D F8 30              3532 	lda	hl,48(sp)
   0C6F 96                 3533 	sub	a,(hl)
   0C70 D2 03 0E           3534 	jp	nc,00109$
                           3535 ;	paint.c 318
                           3536 ;	genAssign
                           3537 ;	AOP_STK for _change_icon_y_1_1
   0C73 F8 33              3538 	lda	hl,51(sp)
   0C75 36 00              3539 	ld	(hl),#0x00
                           3540 ;	genLabel
   0C77                    3541 00101$:
                           3542 ;	genPlus
                           3543 ;	AOP_STK for _change_icon_sloc0_1_0
                           3544 ;	genPlusIncr
                           3545 ;	Can't optimise plus by inc, falling back to the normal way
   0C77 58                 3546 	ld	e,b
   0C78 51                 3547 	ld	d,c
   0C79 21 04 00           3548 	ld	hl,#0x0004
   0C7C 19                 3549 	add	hl,de
   0C7D 7D                 3550 	ld	a,l
   0C7E 54                 3551 	ld	d,h
   0C7F F8 31              3552 	lda	hl,49(sp)
                           3553 ;	genPointerGet
                           3554 ;	AOP_STK for _change_icon_sloc0_1_0
                           3555 ;	AOP_STK for _change_icon_sloc1_1_0
   0C81 22                 3556 	ld	(hl+),a
   0C82 72                 3557 	ld	(hl),d
   0C83 5F                 3558 	ld	e,a
   0C84 1A                 3559 	ld	a,(de)
   0C85 2B                 3560 	dec	hl
   0C86 2B                 3561 	dec	hl
   0C87 77                 3562 	ld	(hl),a
                           3563 ;	genCmpLt
                           3564 ;	AOP_STK for _change_icon_y_1_1
                           3565 ;	AOP_STK for _change_icon_sloc1_1_0
                           3566 ;	AOP_STK for _change_icon_sloc2_1_0
   0C88 F8 33              3567 	lda	hl,51(sp)
   0C8A 7E                 3568 	ld	a,(hl)
   0C8B F8 30              3569 	lda	hl,48(sp)
   0C8D 96                 3570 	sub	a,(hl)
   0C8E 3E 00              3571 	ld	a,#0x00
   0C90 17                 3572 	rla
   0C91 2B                 3573 	dec	hl
   0C92 77                 3574 	ld	(hl),a
                           3575 ;	genIfx
                           3576 ;	AOP_STK for _change_icon_sloc2_1_0
   0C93 AF                 3577 	xor	a,a
   0C94 B6                 3578 	or	a,(hl)
   0C95 CA FD 0D           3579 	jp	z,00107$
                           3580 ;	paint.c 321
                           3581 ;	genIfx
                           3582 ;	AOP_STK for 
   0C98 AF                 3583 	xor	a,a
   0C99 F8 38              3584 	lda	hl,56(sp)
   0C9B B6                 3585 	or	a,(hl)
   0C9C CA 1E 0D           3586 	jp	z,00111$
                           3587 ;	paint.c 322
                           3588 ;	genPointerGet
                           3589 ;	AOP_STK for _change_icon_sloc3_1_0
   0C9F 58                 3590 	ld	e,b
   0CA0 51                 3591 	ld	d,c
   0CA1 1A                 3592 	ld	a,(de)
   0CA2 F8 2E              3593 	lda	hl,46(sp)
   0CA4 77                 3594 	ld	(hl),a
                           3595 ;	genCast
                           3596 ;	AOP_STK for _change_icon_x_1_1
                           3597 ;	AOP_STK for _change_icon_sloc4_1_0
   0CA5 F8 34              3598 	lda	hl,52(sp)
   0CA7 7E                 3599 	ld	a,(hl)
   0CA8 F8 2C              3600 	lda	hl,44(sp)
   0CAA 22                 3601 	ld	(hl+),a
   0CAB 36 00              3602 	ld	(hl),#0x00
                           3603 ;	genLeftShift
                           3604 ;	AOP_STK for _change_icon_sloc4_1_0
                           3605 ;	AOP_STK for _change_icon_sloc5_1_0
   0CAD 2B                 3606 	dec	hl
   0CAE 7E                 3607 	ld	a,(hl)
   0CAF 2B                 3608 	dec	hl
   0CB0 2B                 3609 	dec	hl
   0CB1 77                 3610 	ld	(hl),a
   0CB2 F8 2D              3611 	lda	hl,45(sp)
   0CB4 7E                 3612 	ld	a,(hl)
   0CB5 2B                 3613 	dec	hl
   0CB6 2B                 3614 	dec	hl
   0CB7 32                 3615 	ld      (hl-),a
   0CB8 CB 26              3616 	sla	(hl)
   0CBA 23                 3617 	inc	hl
   0CBB CB 16              3618 	rl	(hl)
                           3619 ;	genCast
                           3620 ;	AOP_STK for _change_icon_sloc3_1_0
                           3621 ;	AOP_STK for _change_icon_sloc6_1_0
   0CBD F8 2E              3622 	lda	hl,46(sp)
   0CBF 7E                 3623 	ld	a,(hl)
   0CC0 F8 28              3624 	lda	hl,40(sp)
   0CC2 22                 3625 	ld	(hl+),a
   0CC3 36 00              3626 	ld	(hl),#0x00
                           3627 ;	genPlus
                           3628 ;	AOP_STK for _change_icon_sloc6_1_0
                           3629 ;	AOP_STK for _change_icon_sloc5_1_0
                           3630 ;	AOP_STK for _change_icon_sloc7_1_0
                           3631 ;	Can't optimise plus by inc, falling back to the normal way
   0CC5 2B                 3632 	dec	hl
   0CC6 5E                 3633 	ld	e,(hl)
   0CC7 23                 3634 	inc	hl
   0CC8 56                 3635 	ld	d,(hl)
   0CC9 23                 3636 	inc	hl
   0CCA 2A                 3637 	ld	a,(hl+)
   0CCB 66                 3638 	ld	h,(hl)
   0CCC 6F                 3639 	ld	l,a
   0CCD 19                 3640 	add	hl,de
   0CCE 7D                 3641 	ld	a,l
   0CCF 54                 3642 	ld	d,h
   0CD0 F8 26              3643 	lda	hl,38(sp)
   0CD2 22                 3644 	ld	(hl+),a
   0CD3 72                 3645 	ld	(hl),d
                           3646 ;	genCast
                           3647 ;	AOP_STK for _change_icon_y_1_1
                           3648 ;	AOP_STK for _change_icon_sloc8_1_0
   0CD4 F8 33              3649 	lda	hl,51(sp)
   0CD6 7E                 3650 	ld	a,(hl)
   0CD7 F8 24              3651 	lda	hl,36(sp)
   0CD9 22                 3652 	ld	(hl+),a
   0CDA 36 00              3653 	ld	(hl),#0x00
                           3654 ;	genPlus
                           3655 ;	AOP_STK for _change_icon_sloc7_1_0
                           3656 ;	AOP_STK for _change_icon_sloc8_1_0
                           3657 ;	AOP_STK for _change_icon_sloc9_1_0
                           3658 ;	Can't optimise plus by inc, falling back to the normal way
   0CDC 23                 3659 	inc	hl
   0CDD 5E                 3660 	ld	e,(hl)
   0CDE 23                 3661 	inc	hl
   0CDF 56                 3662 	ld	d,(hl)
   0CE0 F8 24              3663 	lda	hl,36(sp)
   0CE2 2A                 3664 	ld	a,(hl+)
   0CE3 66                 3665 	ld	h,(hl)
   0CE4 6F                 3666 	ld	l,a
   0CE5 19                 3667 	add	hl,de
   0CE6 7D                 3668 	ld	a,l
   0CE7 54                 3669 	ld	d,h
   0CE8 F8 22              3670 	lda	hl,34(sp)
   0CEA 22                 3671 	ld	(hl+),a
   0CEB 72                 3672 	ld	(hl),d
                           3673 ;	genLeftShift
                           3674 ;	AOP_STK for _change_icon_sloc9_1_0
                           3675 ;	AOP_STK for _change_icon_sloc10_1_0
   0CEC 2B                 3676 	dec	hl
   0CED 7E                 3677 	ld	a,(hl)
   0CEE 2B                 3678 	dec	hl
   0CEF 2B                 3679 	dec	hl
   0CF0 77                 3680 	ld	(hl),a
   0CF1 F8 23              3681 	lda	hl,35(sp)
   0CF3 7E                 3682 	ld	a,(hl)
   0CF4 2B                 3683 	dec	hl
   0CF5 2B                 3684 	dec	hl
   0CF6 77                 3685 	ld	(hl),a
   0CF7 3E 05              3686 	ld	a,#0x04+1
   0CF9 18 07              3687 	jr	00121$
   0CFB                    3688 00120$:
   0CFB F8 20              3689 	lda	hl,32(sp)
   0CFD CB 26              3690 	sla	(hl)
   0CFF 23                 3691 	inc	hl
   0D00 CB 16              3692 	rl	(hl)
   0D02                    3693 00121$:
   0D02 3D                 3694 	dec	a
   0D03 20 F6              3695 	jr	nz,00120$
                           3696 ;	genPlus
                           3697 ;	AOP_STK for _change_icon_sloc10_1_0
                           3698 ;	AOP_STK for _change_icon_sloc11_1_0
                           3699 ;	Can't optimise plus by inc, falling back to the normal way
   0D05 11 C4 04           3700 	ld	de,#_selected_data
   0D08 F8 20              3701 	lda	hl,32(sp)
   0D0A 2A                 3702 	ld	a,(hl+)
   0D0B 66                 3703 	ld	h,(hl)
   0D0C 6F                 3704 	ld	l,a
   0D0D 19                 3705 	add	hl,de
   0D0E 7D                 3706 	ld	a,l
   0D0F 54                 3707 	ld	d,h
   0D10 F8 1E              3708 	lda	hl,30(sp)
   0D12 22                 3709 	ld	(hl+),a
   0D13 72                 3710 	ld	(hl),d
                           3711 ;	genAssign
                           3712 ;	AOP_STK for _change_icon_sloc11_1_0
                           3713 ;	AOP_STK for _change_icon_sloc12_1_0
   0D14 2B                 3714 	dec	hl
   0D15 2A                 3715 	ld	a,(hl+)
   0D16 5E                 3716 	ld	e,(hl)
   0D17 F8 1C              3717 	lda	hl,28(sp)
   0D19 22                 3718 	ld	(hl+),a
   0D1A 73                 3719 	ld	(hl),e
                           3720 ;	genGoto
   0D1B C3 9A 0D           3721 	jp	00112$
                           3722 ;	genLabel
   0D1E                    3723 00111$:
                           3724 ;	paint.c 323
                           3725 ;	genPointerGet
                           3726 ;	AOP_STK for _change_icon_sloc13_1_0
   0D1E 58                 3727 	ld	e,b
   0D1F 51                 3728 	ld	d,c
   0D20 1A                 3729 	ld	a,(de)
   0D21 F8 1B              3730 	lda	hl,27(sp)
   0D23 77                 3731 	ld	(hl),a
                           3732 ;	genCast
                           3733 ;	AOP_STK for _change_icon_x_1_1
                           3734 ;	AOP_STK for _change_icon_sloc14_1_0
   0D24 F8 34              3735 	lda	hl,52(sp)
   0D26 7E                 3736 	ld	a,(hl)
   0D27 F8 19              3737 	lda	hl,25(sp)
   0D29 22                 3738 	ld	(hl+),a
   0D2A 36 00              3739 	ld	(hl),#0x00
                           3740 ;	genLeftShift
                           3741 ;	AOP_STK for _change_icon_sloc14_1_0
                           3742 ;	AOP_STK for _change_icon_sloc15_1_0
   0D2C 2B                 3743 	dec	hl
   0D2D 7E                 3744 	ld	a,(hl)
   0D2E 2B                 3745 	dec	hl
   0D2F 2B                 3746 	dec	hl
   0D30 77                 3747 	ld	(hl),a
   0D31 F8 1A              3748 	lda	hl,26(sp)
   0D33 7E                 3749 	ld	a,(hl)
   0D34 2B                 3750 	dec	hl
   0D35 2B                 3751 	dec	hl
   0D36 32                 3752 	ld      (hl-),a
   0D37 CB 26              3753 	sla	(hl)
   0D39 23                 3754 	inc	hl
   0D3A CB 16              3755 	rl	(hl)
                           3756 ;	genCast
                           3757 ;	AOP_STK for _change_icon_sloc13_1_0
                           3758 ;	AOP_STK for _change_icon_sloc16_1_0
   0D3C F8 1B              3759 	lda	hl,27(sp)
   0D3E 7E                 3760 	ld	a,(hl)
   0D3F F8 15              3761 	lda	hl,21(sp)
   0D41 22                 3762 	ld	(hl+),a
   0D42 36 00              3763 	ld	(hl),#0x00
                           3764 ;	genPlus
                           3765 ;	AOP_STK for _change_icon_sloc16_1_0
                           3766 ;	AOP_STK for _change_icon_sloc15_1_0
                           3767 ;	AOP_STK for _change_icon_sloc17_1_0
                           3768 ;	Can't optimise plus by inc, falling back to the normal way
   0D44 2B                 3769 	dec	hl
   0D45 5E                 3770 	ld	e,(hl)
   0D46 23                 3771 	inc	hl
   0D47 56                 3772 	ld	d,(hl)
   0D48 23                 3773 	inc	hl
   0D49 2A                 3774 	ld	a,(hl+)
   0D4A 66                 3775 	ld	h,(hl)
   0D4B 6F                 3776 	ld	l,a
   0D4C 19                 3777 	add	hl,de
   0D4D 7D                 3778 	ld	a,l
   0D4E 54                 3779 	ld	d,h
   0D4F F8 13              3780 	lda	hl,19(sp)
   0D51 22                 3781 	ld	(hl+),a
   0D52 72                 3782 	ld	(hl),d
                           3783 ;	genCast
                           3784 ;	AOP_STK for _change_icon_y_1_1
                           3785 ;	AOP_STK for _change_icon_sloc18_1_0
   0D53 F8 33              3786 	lda	hl,51(sp)
   0D55 7E                 3787 	ld	a,(hl)
   0D56 F8 11              3788 	lda	hl,17(sp)
   0D58 22                 3789 	ld	(hl+),a
   0D59 36 00              3790 	ld	(hl),#0x00
                           3791 ;	genPlus
                           3792 ;	AOP_STK for _change_icon_sloc17_1_0
                           3793 ;	AOP_STK for _change_icon_sloc18_1_0
                           3794 ;	AOP_STK for _change_icon_sloc19_1_0
                           3795 ;	Can't optimise plus by inc, falling back to the normal way
   0D5B 23                 3796 	inc	hl
   0D5C 5E                 3797 	ld	e,(hl)
   0D5D 23                 3798 	inc	hl
   0D5E 56                 3799 	ld	d,(hl)
   0D5F F8 11              3800 	lda	hl,17(sp)
   0D61 2A                 3801 	ld	a,(hl+)
   0D62 66                 3802 	ld	h,(hl)
   0D63 6F                 3803 	ld	l,a
   0D64 19                 3804 	add	hl,de
   0D65 7D                 3805 	ld	a,l
   0D66 54                 3806 	ld	d,h
   0D67 F8 0F              3807 	lda	hl,15(sp)
   0D69 22                 3808 	ld	(hl+),a
   0D6A 72                 3809 	ld	(hl),d
                           3810 ;	genLeftShift
                           3811 ;	AOP_STK for _change_icon_sloc19_1_0
                           3812 ;	AOP_STK for _change_icon_sloc20_1_0
   0D6B 2B                 3813 	dec	hl
   0D6C 7E                 3814 	ld	a,(hl)
   0D6D 2B                 3815 	dec	hl
   0D6E 2B                 3816 	dec	hl
   0D6F 77                 3817 	ld	(hl),a
   0D70 F8 10              3818 	lda	hl,16(sp)
   0D72 7E                 3819 	ld	a,(hl)
   0D73 2B                 3820 	dec	hl
   0D74 2B                 3821 	dec	hl
   0D75 77                 3822 	ld	(hl),a
   0D76 3E 05              3823 	ld	a,#0x04+1
   0D78 18 07              3824 	jr	00125$
   0D7A                    3825 00124$:
   0D7A F8 0D              3826 	lda	hl,13(sp)
   0D7C CB 26              3827 	sla	(hl)
   0D7E 23                 3828 	inc	hl
   0D7F CB 16              3829 	rl	(hl)
   0D81                    3830 00125$:
   0D81 3D                 3831 	dec	a
   0D82 20 F6              3832 	jr	nz,00124$
                           3833 ;	genPlus
                           3834 ;	AOP_STK for _change_icon_sloc20_1_0
                           3835 ;	AOP_STK for _change_icon_sloc21_1_0
                           3836 ;	Can't optimise plus by inc, falling back to the normal way
   0D84 11 C4 01           3837 	ld	de,#_data
   0D87 F8 0D              3838 	lda	hl,13(sp)
   0D89 2A                 3839 	ld	a,(hl+)
   0D8A 66                 3840 	ld	h,(hl)
   0D8B 6F                 3841 	ld	l,a
   0D8C 19                 3842 	add	hl,de
   0D8D 7D                 3843 	ld	a,l
   0D8E 54                 3844 	ld	d,h
   0D8F F8 0B              3845 	lda	hl,11(sp)
   0D91 22                 3846 	ld	(hl+),a
   0D92 72                 3847 	ld	(hl),d
                           3848 ;	genAssign
                           3849 ;	AOP_STK for _change_icon_sloc21_1_0
                           3850 ;	AOP_STK for _change_icon_sloc12_1_0
   0D93 2B                 3851 	dec	hl
   0D94 2A                 3852 	ld	a,(hl+)
   0D95 5E                 3853 	ld	e,(hl)
   0D96 F8 1C              3854 	lda	hl,28(sp)
   0D98 22                 3855 	ld	(hl+),a
   0D99 73                 3856 	ld	(hl),e
                           3857 ;	genLabel
   0D9A                    3858 00112$:
                           3859 ;	genCast
                           3860 ;	AOP_STK for _change_icon_sloc12_1_0
                           3861 ;	AOP_STK for _change_icon_sloc22_1_0
   0D9A F8 1C              3862 	lda	hl,28(sp)
   0D9C 7E                 3863 	ld	a,(hl)
   0D9D F8 09              3864 	lda	hl,9(sp)
   0D9F 77                 3865 	ld	(hl),a
   0DA0 F8 1D              3866 	lda	hl,29(sp)
   0DA2 7E                 3867 	ld	a,(hl)
   0DA3 F8 0A              3868 	lda	hl,10(sp)
   0DA5 77                 3869 	ld	(hl),a
                           3870 ;	paint.c 320
                           3871 ;	genPlus
                           3872 ;	AOP_STK for _change_icon_sloc23_1_0
                           3873 ;	genPlusIncr
                           3874 ;	Can't optimise plus by inc, falling back to the normal way
   0DA6 58                 3875 	ld	e,b
   0DA7 51                 3876 	ld	d,c
   0DA8 21 02 00           3877 	ld	hl,#0x0002
   0DAB 19                 3878 	add	hl,de
   0DAC 7D                 3879 	ld	a,l
   0DAD 54                 3880 	ld	d,h
   0DAE F8 07              3881 	lda	hl,7(sp)
                           3882 ;	genPointerGet
                           3883 ;	AOP_STK for _change_icon_sloc23_1_0
                           3884 ;	AOP_STK for _change_icon_sloc24_1_0
   0DB0 22                 3885 	ld	(hl+),a
   0DB1 72                 3886 	ld	(hl),d
   0DB2 5F                 3887 	ld	e,a
   0DB3 1A                 3888 	ld	a,(de)
   0DB4 2B                 3889 	dec	hl
   0DB5 2B                 3890 	dec	hl
                           3891 ;	genPlus
                           3892 ;	AOP_STK for _change_icon_sloc24_1_0
                           3893 ;	AOP_STK for _change_icon_y_1_1
                           3894 ;	AOP_STK for _change_icon_sloc25_1_0
                           3895 ;	Can't optimise plus by inc, falling back to the normal way
   0DB6 77                 3896 	ld      (hl),a
                           3897 ; Removed redundent load
   0DB7 F8 33              3898 	lda	hl,51(sp)
   0DB9 86                 3899 	add	a,(hl)
   0DBA F8 05              3900 	lda	hl,5(sp)
   0DBC 77                 3901 	ld	(hl),a
                           3902 ;	paint.c 319
                           3903 ;	genPlus
                           3904 ;	AOP_STK for _change_icon_sloc26_1_0
                           3905 ;	genPlusIncr
                           3906 ;	Can't optimise plus by inc, falling back to the normal way
   0DBD 58                 3907 	ld	e,b
   0DBE 51                 3908 	ld	d,c
   0DBF 21 01 00           3909 	ld	hl,#0x0001
   0DC2 19                 3910 	add	hl,de
   0DC3 7D                 3911 	ld	a,l
   0DC4 54                 3912 	ld	d,h
   0DC5 F8 03              3913 	lda	hl,3(sp)
                           3914 ;	genPointerGet
                           3915 ;	AOP_STK for _change_icon_sloc26_1_0
                           3916 ;	AOP_STK for _change_icon_sloc27_1_0
   0DC7 22                 3917 	ld	(hl+),a
   0DC8 72                 3918 	ld	(hl),d
   0DC9 5F                 3919 	ld	e,a
   0DCA 1A                 3920 	ld	a,(de)
   0DCB 2B                 3921 	dec	hl
   0DCC 2B                 3922 	dec	hl
                           3923 ;	genPlus
                           3924 ;	AOP_STK for _change_icon_sloc27_1_0
                           3925 ;	AOP_STK for _change_icon_x_1_1
                           3926 ;	AOP_STK for _change_icon_sloc28_1_0
                           3927 ;	Can't optimise plus by inc, falling back to the normal way
   0DCD 77                 3928 	ld      (hl),a
                           3929 ; Removed redundent load
   0DCE F8 34              3930 	lda	hl,52(sp)
   0DD0 86                 3931 	add	a,(hl)
   0DD1 F8 01              3932 	lda	hl,1(sp)
   0DD3 77                 3933 	ld	(hl),a
                           3934 ;	genIpush
                           3935 ; _saveRegsForCall: sendSetSize: 0 deInUse: 0 bcInUse: 1 deSending: 0
   0DD4 C5                 3936 	push	bc
   0DD5 21 00 00           3937 	ld	hl,#0x0000
   0DD8 E5                 3938 	push	hl
                           3939 ;	genIpush
                           3940 ;	AOP_STK for _change_icon_sloc22_1_0
   0DD9 F8 0D              3941 	lda	hl,13(sp)
   0DDB 2A                 3942 	ld	a,(hl+)
   0DDC 66                 3943 	ld	h,(hl)
   0DDD 6F                 3944 	ld	l,a
   0DDE E5                 3945 	push	hl
                           3946 ;	genIpush
                           3947 ;	AOP_STK for _change_icon_sloc25_1_0
   0DDF F8 0B              3948 	lda	hl,11(sp)
   0DE1 7E                 3949 	ld	a,(hl)
   0DE2 F5                 3950 	push	af
   0DE3 33                 3951 	inc	sp
                           3952 ;	genIpush
                           3953 ;	AOP_STK for _change_icon_sloc28_1_0
   0DE4 F8 08              3954 	lda	hl,8(sp)
   0DE6 7E                 3955 	ld	a,(hl)
   0DE7 F5                 3956 	push	af
   0DE8 33                 3957 	inc	sp
                           3958 ;	genCall
   0DE9 CD 00 00           3959 	call	_switch_data
   0DEC E8 06              3960 	lda	sp,6(sp)
   0DEE C1                 3961 	pop	bc
                           3962 ;	paint.c 318
                           3963 ;	genPlus
                           3964 ;	AOP_STK for _change_icon_y_1_1
                           3965 ;	AOP_STK for _change_icon_sloc29_1_0
                           3966 ;	genPlusIncr
                           3967 ;	Can't optimise plus by inc, falling back to the normal way
   0DEF F8 33              3968 	lda	hl,51(sp)
   0DF1 7E                 3969 	ld	a,(hl)
   0DF2 C6 01              3970 	add	a,#0x01
   0DF4 F8 00              3971 	lda	hl,0(sp)
                           3972 ;	genAssign
                           3973 ;	AOP_STK for _change_icon_sloc29_1_0
                           3974 ;	AOP_STK for _change_icon_y_1_1
   0DF6 77                 3975 	ld      (hl),a
                           3976 ; Removed redundent load
   0DF7 F8 33              3977 	lda	hl,51(sp)
   0DF9 77                 3978 	ld	(hl),a
                           3979 ;	genGoto
   0DFA C3 77 0C           3980 	jp	00101$
                           3981 ;	genLabel
   0DFD                    3982 00107$:
                           3983 ;	paint.c 317
                           3984 ;	genPlus
                           3985 ;	AOP_STK for _change_icon_x_1_1
                           3986 ;	genPlusIncr
   0DFD F8 34              3987 	lda	hl,52(sp)
   0DFF 34                 3988 	inc	(hl)
                           3989 ;	genGoto
   0E00 C3 44 0C           3990 	jp	00105$
                           3991 ;	genLabel
   0E03                    3992 00109$:
                           3993 ;	genEndFunction
   0E03 E8 35              3994 	lda	sp,53(sp)
   0E05 C9                 3995 	ret
   0E06                    3996 ___change_icon_end:
                           3997 ;	paint.c 327
                           3998 ;	genLabel
                           3999 ;	genFunction
                           4000 ;	---------------------------------
                           4001 ; Function reset_icon
                           4002 ; ---------------------------------
   0E06                    4003 ___reset_icon_start:
   0E06                    4004 _reset_icon:
   0E06 E8 E5              4005 	lda	sp,-27(sp)
                           4006 ;	paint.c 331
                           4007 ;	genAssign
                           4008 ;	AOP_STK for _reset_icon_x_1_1
   0E08 F8 1A              4009 	lda	hl,26(sp)
   0E0A 36 00              4010 	ld	(hl),#0x00
                           4011 ;	genLabel
   0E0C                    4012 00105$:
                           4013 ;	genMult
                           4014 ;	AOP_STK for 
   0E0C F8 1D              4015 	lda	hl,29(sp)
   0E0E 5E                 4016 	ld	e,(hl)
   0E0F 16 00              4017 	ld	d,#0x00
   0E11 6B                 4018 	ld	l,e
   0E12 62                 4019 	ld	h,d
   0E13 29                 4020 	add	hl,hl
   0E14 29                 4021 	add	hl,hl
   0E15 19                 4022 	add	hl,de
   0E16 29                 4023 	add	hl,hl
   0E17 45                 4024 	ld	b,l
   0E18 4C                 4025 	ld	c,h
                           4026 ;	genPlus
                           4027 ;	Can't optimise plus by inc, falling back to the normal way
   0E19 3E 10              4028 	ld	a,#<_icons
   0E1B 80                 4029 	add	a,b
   0E1C 47                 4030 	ld	b,a
   0E1D 3E 01              4031 	ld	a,#>_icons
   0E1F 89                 4032 	adc	a,c
   0E20 4F                 4033 	ld	c,a
                           4034 ;	genPlus
                           4035 ;	AOP_STK for _reset_icon_sloc0_1_0
                           4036 ;	genPlusIncr
                           4037 ;	Can't optimise plus by inc, falling back to the normal way
   0E21 58                 4038 	ld	e,b
   0E22 51                 4039 	ld	d,c
   0E23 21 03 00           4040 	ld	hl,#0x0003
   0E26 19                 4041 	add	hl,de
   0E27 7D                 4042 	ld	a,l
   0E28 54                 4043 	ld	d,h
   0E29 F8 17              4044 	lda	hl,23(sp)
                           4045 ;	genPointerGet
                           4046 ;	AOP_STK for _reset_icon_sloc0_1_0
                           4047 ;	AOP_STK for _reset_icon_sloc1_1_0
   0E2B 22                 4048 	ld	(hl+),a
   0E2C 72                 4049 	ld	(hl),d
   0E2D 5F                 4050 	ld	e,a
   0E2E 1A                 4051 	ld	a,(de)
   0E2F 2B                 4052 	dec	hl
   0E30 2B                 4053 	dec	hl
   0E31 77                 4054 	ld	(hl),a
                           4055 ;	genCmpLt
                           4056 ;	AOP_STK for _reset_icon_x_1_1
                           4057 ;	AOP_STK for _reset_icon_sloc1_1_0
   0E32 F8 1A              4058 	lda	hl,26(sp)
   0E34 7E                 4059 	ld	a,(hl)
   0E35 F8 16              4060 	lda	hl,22(sp)
   0E37 96                 4061 	sub	a,(hl)
   0E38 D2 0B 0F           4062 	jp	nc,00109$
                           4063 ;	paint.c 332
                           4064 ;	genAssign
                           4065 ;	AOP_STK for _reset_icon_y_1_1
   0E3B F8 19              4066 	lda	hl,25(sp)
   0E3D 36 00              4067 	ld	(hl),#0x00
                           4068 ;	genLabel
   0E3F                    4069 00101$:
                           4070 ;	genPlus
                           4071 ;	AOP_STK for _reset_icon_sloc0_1_0
                           4072 ;	genPlusIncr
                           4073 ;	Can't optimise plus by inc, falling back to the normal way
   0E3F 58                 4074 	ld	e,b
   0E40 51                 4075 	ld	d,c
   0E41 21 04 00           4076 	ld	hl,#0x0004
   0E44 19                 4077 	add	hl,de
   0E45 7D                 4078 	ld	a,l
   0E46 54                 4079 	ld	d,h
   0E47 F8 17              4080 	lda	hl,23(sp)
                           4081 ;	genPointerGet
                           4082 ;	AOP_STK for _reset_icon_sloc0_1_0
                           4083 ;	AOP_STK for _reset_icon_sloc1_1_0
   0E49 22                 4084 	ld	(hl+),a
   0E4A 72                 4085 	ld	(hl),d
   0E4B 5F                 4086 	ld	e,a
   0E4C 1A                 4087 	ld	a,(de)
   0E4D 2B                 4088 	dec	hl
   0E4E 2B                 4089 	dec	hl
   0E4F 77                 4090 	ld	(hl),a
                           4091 ;	genCmpLt
                           4092 ;	AOP_STK for _reset_icon_y_1_1
                           4093 ;	AOP_STK for _reset_icon_sloc1_1_0
                           4094 ;	AOP_STK for _reset_icon_sloc2_1_0
   0E50 F8 19              4095 	lda	hl,25(sp)
   0E52 7E                 4096 	ld	a,(hl)
   0E53 F8 16              4097 	lda	hl,22(sp)
   0E55 96                 4098 	sub	a,(hl)
   0E56 3E 00              4099 	ld	a,#0x00
   0E58 17                 4100 	rla
   0E59 2B                 4101 	dec	hl
   0E5A 77                 4102 	ld	(hl),a
                           4103 ;	genIfx
                           4104 ;	AOP_STK for _reset_icon_sloc2_1_0
   0E5B AF                 4105 	xor	a,a
   0E5C B6                 4106 	or	a,(hl)
   0E5D CA 05 0F           4107 	jp	z,00107$
                           4108 ;	paint.c 335
                           4109 ;	genPointerGet
                           4110 ;	AOP_STK for _reset_icon_sloc3_1_0
   0E60 58                 4111 	ld	e,b
   0E61 51                 4112 	ld	d,c
   0E62 1A                 4113 	ld	a,(de)
   0E63 2B                 4114 	dec	hl
   0E64 77                 4115 	ld	(hl),a
                           4116 ;	genLeftShift
                           4117 ;	AOP_STK for _reset_icon_x_1_1
                           4118 ;	AOP_STK for _reset_icon_sloc4_1_0
   0E65 F8 1A              4119 	lda	hl,26(sp)
   0E67 7E                 4120 	ld	a,(hl)
   0E68 87                 4121 	add	a,a
   0E69 F8 13              4122 	lda	hl,19(sp)
                           4123 ;	genPlus
                           4124 ;	AOP_STK for _reset_icon_sloc3_1_0
                           4125 ;	AOP_STK for _reset_icon_sloc4_1_0
                           4126 ;	AOP_STK for _reset_icon_sloc5_1_0
                           4127 ;	Can't optimise plus by inc, falling back to the normal way
   0E6B 22                 4128 	ld	(hl+),a
   0E6C 7E                 4129 	ld	a,(hl)
   0E6D 2B                 4130 	dec	hl
   0E6E 86                 4131 	add	a,(hl)
   0E6F 2B                 4132 	dec	hl
                           4133 ;	genPlus
                           4134 ;	AOP_STK for _reset_icon_sloc5_1_0
                           4135 ;	AOP_STK for _reset_icon_y_1_1
                           4136 ;	AOP_STK for _reset_icon_sloc6_1_0
                           4137 ;	Can't optimise plus by inc, falling back to the normal way
   0E70 77                 4138 	ld      (hl),a
                           4139 ; Removed redundent load
   0E71 F8 19              4140 	lda	hl,25(sp)
   0E73 86                 4141 	add	a,(hl)
   0E74 F8 11              4142 	lda	hl,17(sp)
                           4143 ;	genCast
                           4144 ;	AOP_STK for _reset_icon_sloc6_1_0
                           4145 ;	AOP_STK for _reset_icon_sloc7_1_0
                           4146 ; Removed redundent load
   0E76 32                 4147 	ld      (hl-),a
   0E77 2B                 4148 	dec	hl
   0E78 22                 4149 	ld	(hl+),a
   0E79 36 00              4150 	ld	(hl),#0x00
                           4151 ;	genLeftShift
                           4152 ;	AOP_STK for _reset_icon_sloc7_1_0
                           4153 ;	AOP_STK for _reset_icon_sloc8_1_0
   0E7B 2B                 4154 	dec	hl
   0E7C 7E                 4155 	ld	a,(hl)
   0E7D 2B                 4156 	dec	hl
   0E7E 2B                 4157 	dec	hl
   0E7F 77                 4158 	ld	(hl),a
   0E80 F8 10              4159 	lda	hl,16(sp)
   0E82 7E                 4160 	ld	a,(hl)
   0E83 2B                 4161 	dec	hl
   0E84 2B                 4162 	dec	hl
   0E85 77                 4163 	ld	(hl),a
   0E86 3E 05              4164 	ld	a,#0x04+1
   0E88 18 07              4165 	jr	00116$
   0E8A                    4166 00115$:
   0E8A F8 0D              4167 	lda	hl,13(sp)
   0E8C CB 26              4168 	sla	(hl)
   0E8E 23                 4169 	inc	hl
   0E8F CB 16              4170 	rl	(hl)
   0E91                    4171 00116$:
   0E91 3D                 4172 	dec	a
   0E92 20 F6              4173 	jr	nz,00115$
                           4174 ;	genPlus
                           4175 ;	AOP_STK for _reset_icon_sloc8_1_0
                           4176 ;	AOP_STK for _reset_icon_sloc9_1_0
                           4177 ;	Can't optimise plus by inc, falling back to the normal way
   0E94 11 00 00           4178 	ld	de,#_data_buffer
   0E97 F8 0D              4179 	lda	hl,13(sp)
   0E99 2A                 4180 	ld	a,(hl+)
   0E9A 66                 4181 	ld	h,(hl)
   0E9B 6F                 4182 	ld	l,a
   0E9C 19                 4183 	add	hl,de
   0E9D 7D                 4184 	ld	a,l
   0E9E 54                 4185 	ld	d,h
   0E9F F8 0B              4186 	lda	hl,11(sp)
   0EA1 22                 4187 	ld	(hl+),a
   0EA2 72                 4188 	ld	(hl),d
                           4189 ;	genCast
                           4190 ;	AOP_STK for _reset_icon_sloc9_1_0
                           4191 ;	AOP_STK for _reset_icon_sloc10_1_0
   0EA3 2B                 4192 	dec	hl
   0EA4 7E                 4193 	ld	a,(hl)
   0EA5 2B                 4194 	dec	hl
   0EA6 2B                 4195 	dec	hl
   0EA7 77                 4196 	ld	(hl),a
   0EA8 F8 0C              4197 	lda	hl,12(sp)
   0EAA 7E                 4198 	ld	a,(hl)
   0EAB 2B                 4199 	dec	hl
   0EAC 2B                 4200 	dec	hl
   0EAD 77                 4201 	ld	(hl),a
                           4202 ;	paint.c 334
                           4203 ;	genPlus
                           4204 ;	AOP_STK for _reset_icon_sloc11_1_0
                           4205 ;	genPlusIncr
                           4206 ;	Can't optimise plus by inc, falling back to the normal way
   0EAE 58                 4207 	ld	e,b
   0EAF 51                 4208 	ld	d,c
   0EB0 21 02 00           4209 	ld	hl,#0x0002
   0EB3 19                 4210 	add	hl,de
   0EB4 7D                 4211 	ld	a,l
   0EB5 54                 4212 	ld	d,h
   0EB6 F8 07              4213 	lda	hl,7(sp)
                           4214 ;	genPointerGet
                           4215 ;	AOP_STK for _reset_icon_sloc11_1_0
                           4216 ;	AOP_STK for _reset_icon_sloc12_1_0
   0EB8 22                 4217 	ld	(hl+),a
   0EB9 72                 4218 	ld	(hl),d
   0EBA 5F                 4219 	ld	e,a
   0EBB 1A                 4220 	ld	a,(de)
   0EBC 2B                 4221 	dec	hl
   0EBD 2B                 4222 	dec	hl
                           4223 ;	genPlus
                           4224 ;	AOP_STK for _reset_icon_sloc12_1_0
                           4225 ;	AOP_STK for _reset_icon_y_1_1
                           4226 ;	AOP_STK for _reset_icon_sloc13_1_0
                           4227 ;	Can't optimise plus by inc, falling back to the normal way
   0EBE 77                 4228 	ld      (hl),a
                           4229 ; Removed redundent load
   0EBF F8 19              4230 	lda	hl,25(sp)
   0EC1 86                 4231 	add	a,(hl)
   0EC2 F8 05              4232 	lda	hl,5(sp)
   0EC4 77                 4233 	ld	(hl),a
                           4234 ;	paint.c 333
                           4235 ;	genPlus
                           4236 ;	AOP_STK for _reset_icon_sloc14_1_0
                           4237 ;	genPlusIncr
                           4238 ;	Can't optimise plus by inc, falling back to the normal way
   0EC5 58                 4239 	ld	e,b
   0EC6 51                 4240 	ld	d,c
   0EC7 21 01 00           4241 	ld	hl,#0x0001
   0ECA 19                 4242 	add	hl,de
   0ECB 7D                 4243 	ld	a,l
   0ECC 54                 4244 	ld	d,h
   0ECD F8 03              4245 	lda	hl,3(sp)
                           4246 ;	genPointerGet
                           4247 ;	AOP_STK for _reset_icon_sloc14_1_0
                           4248 ;	AOP_STK for _reset_icon_sloc15_1_0
   0ECF 22                 4249 	ld	(hl+),a
   0ED0 72                 4250 	ld	(hl),d
   0ED1 5F                 4251 	ld	e,a
   0ED2 1A                 4252 	ld	a,(de)
   0ED3 2B                 4253 	dec	hl
   0ED4 2B                 4254 	dec	hl
                           4255 ;	genPlus
                           4256 ;	AOP_STK for _reset_icon_sloc15_1_0
                           4257 ;	AOP_STK for _reset_icon_x_1_1
                           4258 ;	AOP_STK for _reset_icon_sloc16_1_0
                           4259 ;	Can't optimise plus by inc, falling back to the normal way
   0ED5 77                 4260 	ld      (hl),a
                           4261 ; Removed redundent load
   0ED6 F8 1A              4262 	lda	hl,26(sp)
   0ED8 86                 4263 	add	a,(hl)
   0ED9 F8 01              4264 	lda	hl,1(sp)
   0EDB 77                 4265 	ld	(hl),a
                           4266 ;	genIpush
                           4267 ; _saveRegsForCall: sendSetSize: 0 deInUse: 0 bcInUse: 1 deSending: 0
   0EDC C5                 4268 	push	bc
   0EDD 21 00 00           4269 	ld	hl,#0x0000
   0EE0 E5                 4270 	push	hl
                           4271 ;	genIpush
                           4272 ;	AOP_STK for _reset_icon_sloc10_1_0
   0EE1 F8 0D              4273 	lda	hl,13(sp)
   0EE3 2A                 4274 	ld	a,(hl+)
   0EE4 66                 4275 	ld	h,(hl)
   0EE5 6F                 4276 	ld	l,a
   0EE6 E5                 4277 	push	hl
                           4278 ;	genIpush
                           4279 ;	AOP_STK for _reset_icon_sloc13_1_0
   0EE7 F8 0B              4280 	lda	hl,11(sp)
   0EE9 7E                 4281 	ld	a,(hl)
   0EEA F5                 4282 	push	af
   0EEB 33                 4283 	inc	sp
                           4284 ;	genIpush
                           4285 ;	AOP_STK for _reset_icon_sloc16_1_0
   0EEC F8 08              4286 	lda	hl,8(sp)
   0EEE 7E                 4287 	ld	a,(hl)
   0EEF F5                 4288 	push	af
   0EF0 33                 4289 	inc	sp
                           4290 ;	genCall
   0EF1 CD 00 00           4291 	call	_switch_data
   0EF4 E8 06              4292 	lda	sp,6(sp)
   0EF6 C1                 4293 	pop	bc
                           4294 ;	paint.c 332
                           4295 ;	genPlus
                           4296 ;	AOP_STK for _reset_icon_y_1_1
                           4297 ;	AOP_STK for _reset_icon_sloc17_1_0
                           4298 ;	genPlusIncr
                           4299 ;	Can't optimise plus by inc, falling back to the normal way
   0EF7 F8 19              4300 	lda	hl,25(sp)
   0EF9 7E                 4301 	ld	a,(hl)
   0EFA C6 01              4302 	add	a,#0x01
   0EFC F8 00              4303 	lda	hl,0(sp)
                           4304 ;	genAssign
                           4305 ;	AOP_STK for _reset_icon_sloc17_1_0
                           4306 ;	AOP_STK for _reset_icon_y_1_1
   0EFE 77                 4307 	ld      (hl),a
                           4308 ; Removed redundent load
   0EFF F8 19              4309 	lda	hl,25(sp)
   0F01 77                 4310 	ld	(hl),a
                           4311 ;	genGoto
   0F02 C3 3F 0E           4312 	jp	00101$
                           4313 ;	genLabel
   0F05                    4314 00107$:
                           4315 ;	paint.c 331
                           4316 ;	genPlus
                           4317 ;	AOP_STK for _reset_icon_x_1_1
                           4318 ;	genPlusIncr
   0F05 F8 1A              4319 	lda	hl,26(sp)
   0F07 34                 4320 	inc	(hl)
                           4321 ;	genGoto
   0F08 C3 0C 0E           4322 	jp	00105$
                           4323 ;	genLabel
   0F0B                    4324 00109$:
                           4325 ;	genEndFunction
   0F0B E8 1B              4326 	lda	sp,27(sp)
   0F0D C9                 4327 	ret
   0F0E                    4328 ___reset_icon_end:
                           4329 ;	paint.c 339
                           4330 ;	genLabel
                           4331 ;	genFunction
                           4332 ;	---------------------------------
                           4333 ; Function splash
                           4334 ; ---------------------------------
   0F0E                    4335 ___splash_start:
   0F0E                    4336 _splash:
   0F0E E8 FC              4337 	lda	sp,-4(sp)
                           4338 ;	paint.c 343
                           4339 ;	genAssign
                           4340 ;	AOP_HL for _cursor_x
   0F10 21 05 03           4341 	ld	hl,#_cursor_x
   0F13 36 28              4342 	ld	(hl),#0x28
                           4343 ;	paint.c 344
                           4344 ;	genAssign
                           4345 ;	AOP_HL for _cursor_y
   0F15 21 06 03           4346 	ld	hl,#_cursor_y
   0F18 36 32              4347 	ld	(hl),#0x32
                           4348 ;	paint.c 345
                           4349 ;	genAssign
                           4350 ;	AOP_HL for _current_cursor
   0F1A 21 03 03           4351 	ld	hl,#_current_cursor
   0F1D 36 01              4352 	ld	(hl),#0x01
                           4353 ;	paint.c 346
                           4354 ;	genCall
                           4355 ; _saveRegsForCall: sendSetSize: 0 deInUse: 0 bcInUse: 0 deSending: 0
   0F1F CD 00 00           4356 	call	_set_cursor
                           4357 ;	paint.c 347
                           4358 ;	genCall
                           4359 ; _saveRegsForCall: sendSetSize: 0 deInUse: 0 bcInUse: 0 deSending: 0
   0F22 CD 3A 09           4360 	call	_move_cursor
                           4361 ;	paint.c 348
                           4362 ;	genAssign
   0F25 01 40 FF           4363 	ld	bc,#0xFF40
                           4364 ;	genAssign
                           4365 ;	AOP_STK for _splash_sloc0_1_0
   0F28 F8 01              4366 	lda	hl,1(sp)
   0F2A 36 40              4367 	ld	(hl),#0x40
   0F2C 23                 4368 	inc	hl
   0F2D 36 FF              4369 	ld	(hl),#0xFF
                           4370 ;	genPointerGet
                           4371 ;	AOP_STK for _splash_sloc0_1_0
                           4372 ;	AOP_STK for _splash_sloc1_1_0
   0F2F 2B                 4373 	dec	hl
   0F30 5E                 4374 	ld	e,(hl)
   0F31 23                 4375 	inc	hl
   0F32 56                 4376 	ld	d,(hl)
   0F33 1A                 4377 	ld	a,(de)
   0F34 2B                 4378 	dec	hl
   0F35 2B                 4379 	dec	hl
                           4380 ;	genOr
                           4381 ;	AOP_STK for _splash_sloc1_1_0
   0F36 77                 4382 	ld      (hl),a
                           4383 ; Removed redundent load
   0F37 F6 02              4384 	or	a,#0x02
                           4385 ;	genAssign (pointer)
   0F39 02                 4386 	ld	(bc),a
                           4387 ;	genLabel
   0F3A                    4388 00101$:
                           4389 ;	paint.c 350
                           4390 ;	genCmpLt
                           4391 ;	AOP_HL for _cursor_x
   0F3A 21 05 03           4392 	ld	hl,#_cursor_x
   0F3D 7E                 4393 	ld	a,(hl)
   0F3E FE 78              4394 	cp	#0x78
   0F40 D2 65 0F           4395 	jp	nc,00105$
                           4396 ;	paint.c 351
                           4397 ;	genCall
                           4398 ; _saveRegsForCall: sendSetSize: 0 deInUse: 0 bcInUse: 0 deSending: 0
   0F43 CD 00 00           4399 	call	_wait_vbl_done
                           4400 ;	paint.c 352
                           4401 ;	genCall
                           4402 ; _saveRegsForCall: sendSetSize: 0 deInUse: 0 bcInUse: 0 deSending: 0
   0F46 CD 3A 09           4403 	call	_move_cursor
                           4404 ;	paint.c 353
                           4405 ;	genIpush
                           4406 ; _saveRegsForCall: sendSetSize: 0 deInUse: 0 bcInUse: 0 deSending: 0
   0F49 21 03 00           4407 	ld	hl,#0x0003
   0F4C E5                 4408 	push	hl
                           4409 ;	genIpush
                           4410 ;	AOP_HL for _cursor_y
   0F4D 21 06 03           4411 	ld	hl,#_cursor_y
   0F50 7E                 4412 	ld	a,(hl)
   0F51 F5                 4413 	push	af
   0F52 33                 4414 	inc	sp
                           4415 ;	genIpush
                           4416 ;	AOP_HL for _cursor_x
   0F53 21 05 03           4417 	ld	hl,#_cursor_x
   0F56 7E                 4418 	ld	a,(hl)
   0F57 F5                 4419 	push	af
   0F58 33                 4420 	inc	sp
                           4421 ;	genCall
   0F59 CD 00 00           4422 	call	_plot
   0F5C E8 04              4423 	lda	sp,4(sp)
                           4424 ;	paint.c 350
                           4425 ;	genPlus
                           4426 ;	AOP_HL for _cursor_x
                           4427 ;	genPlusIncr
   0F5E 21 05 03           4428 	ld	hl,#_cursor_x
   0F61 34                 4429 	inc	(hl)
                           4430 ;	genGoto
   0F62 C3 3A 0F           4431 	jp	00101$
                           4432 ;	genLabel
   0F65                    4433 00105$:
                           4434 ;	paint.c 355
                           4435 ;	genCmpLt
                           4436 ;	AOP_HL for _cursor_y
   0F65 21 06 03           4437 	ld	hl,#_cursor_y
   0F68 7E                 4438 	ld	a,(hl)
   0F69 FE 5E              4439 	cp	#0x5E
   0F6B D2 90 0F           4440 	jp	nc,00109$
                           4441 ;	paint.c 356
                           4442 ;	genCall
                           4443 ; _saveRegsForCall: sendSetSize: 0 deInUse: 0 bcInUse: 0 deSending: 0
   0F6E CD 00 00           4444 	call	_wait_vbl_done
                           4445 ;	paint.c 357
                           4446 ;	genCall
                           4447 ; _saveRegsForCall: sendSetSize: 0 deInUse: 0 bcInUse: 0 deSending: 0
   0F71 CD 3A 09           4448 	call	_move_cursor
                           4449 ;	paint.c 358
                           4450 ;	genIpush
                           4451 ; _saveRegsForCall: sendSetSize: 0 deInUse: 0 bcInUse: 0 deSending: 0
   0F74 21 03 00           4452 	ld	hl,#0x0003
   0F77 E5                 4453 	push	hl
                           4454 ;	genIpush
                           4455 ;	AOP_HL for _cursor_y
   0F78 21 06 03           4456 	ld	hl,#_cursor_y
   0F7B 7E                 4457 	ld	a,(hl)
   0F7C F5                 4458 	push	af
   0F7D 33                 4459 	inc	sp
                           4460 ;	genIpush
                           4461 ;	AOP_HL for _cursor_x
   0F7E 21 05 03           4462 	ld	hl,#_cursor_x
   0F81 7E                 4463 	ld	a,(hl)
   0F82 F5                 4464 	push	af
   0F83 33                 4465 	inc	sp
                           4466 ;	genCall
   0F84 CD 00 00           4467 	call	_plot
   0F87 E8 04              4468 	lda	sp,4(sp)
                           4469 ;	paint.c 355
                           4470 ;	genPlus
                           4471 ;	AOP_HL for _cursor_y
                           4472 ;	genPlusIncr
   0F89 21 06 03           4473 	ld	hl,#_cursor_y
   0F8C 34                 4474 	inc	(hl)
                           4475 ;	genGoto
   0F8D C3 65 0F           4476 	jp	00105$
                           4477 ;	genLabel
   0F90                    4478 00109$:
                           4479 ;	paint.c 360
                           4480 ;	genCmpGt
                           4481 ;	AOP_HL for _cursor_x
   0F90 3E 28              4482 	ld	a,#0x28
   0F92 21 05 03           4483 	ld	hl,#_cursor_x
   0F95 96                 4484 	sub	a,(hl)
   0F96 D2 BB 0F           4485 	jp	nc,00113$
                           4486 ;	paint.c 361
                           4487 ;	genCall
                           4488 ; _saveRegsForCall: sendSetSize: 0 deInUse: 0 bcInUse: 0 deSending: 0
   0F99 CD 00 00           4489 	call	_wait_vbl_done
                           4490 ;	paint.c 362
                           4491 ;	genCall
                           4492 ; _saveRegsForCall: sendSetSize: 0 deInUse: 0 bcInUse: 0 deSending: 0
   0F9C CD 3A 09           4493 	call	_move_cursor
                           4494 ;	paint.c 363
                           4495 ;	genIpush
                           4496 ; _saveRegsForCall: sendSetSize: 0 deInUse: 0 bcInUse: 0 deSending: 0
   0F9F 21 03 00           4497 	ld	hl,#0x0003
   0FA2 E5                 4498 	push	hl
                           4499 ;	genIpush
                           4500 ;	AOP_HL for _cursor_y
   0FA3 21 06 03           4501 	ld	hl,#_cursor_y
   0FA6 7E                 4502 	ld	a,(hl)
   0FA7 F5                 4503 	push	af
   0FA8 33                 4504 	inc	sp
                           4505 ;	genIpush
                           4506 ;	AOP_HL for _cursor_x
   0FA9 21 05 03           4507 	ld	hl,#_cursor_x
   0FAC 7E                 4508 	ld	a,(hl)
   0FAD F5                 4509 	push	af
   0FAE 33                 4510 	inc	sp
                           4511 ;	genCall
   0FAF CD 00 00           4512 	call	_plot
   0FB2 E8 04              4513 	lda	sp,4(sp)
                           4514 ;	paint.c 360
                           4515 ;	genMinus
                           4516 ;	AOP_HL for _cursor_x
   0FB4 21 05 03           4517 	ld	hl,#_cursor_x
   0FB7 35                 4518 	dec	(hl)
                           4519 ;	genGoto
   0FB8 C3 90 0F           4520 	jp	00109$
                           4521 ;	genLabel
   0FBB                    4522 00113$:
                           4523 ;	paint.c 365
                           4524 ;	genCmpGt
                           4525 ;	AOP_HL for _cursor_y
   0FBB 3E 32              4526 	ld	a,#0x32
   0FBD 21 06 03           4527 	ld	hl,#_cursor_y
   0FC0 96                 4528 	sub	a,(hl)
   0FC1 D2 E6 0F           4529 	jp	nc,00116$
                           4530 ;	paint.c 366
                           4531 ;	genCall
                           4532 ; _saveRegsForCall: sendSetSize: 0 deInUse: 0 bcInUse: 0 deSending: 0
   0FC4 CD 00 00           4533 	call	_wait_vbl_done
                           4534 ;	paint.c 367
                           4535 ;	genCall
                           4536 ; _saveRegsForCall: sendSetSize: 0 deInUse: 0 bcInUse: 0 deSending: 0
   0FC7 CD 3A 09           4537 	call	_move_cursor
                           4538 ;	paint.c 368
                           4539 ;	genIpush
                           4540 ; _saveRegsForCall: sendSetSize: 0 deInUse: 0 bcInUse: 0 deSending: 0
   0FCA 21 03 00           4541 	ld	hl,#0x0003
   0FCD E5                 4542 	push	hl
                           4543 ;	genIpush
                           4544 ;	AOP_HL for _cursor_y
   0FCE 21 06 03           4545 	ld	hl,#_cursor_y
   0FD1 7E                 4546 	ld	a,(hl)
   0FD2 F5                 4547 	push	af
   0FD3 33                 4548 	inc	sp
                           4549 ;	genIpush
                           4550 ;	AOP_HL for _cursor_x
   0FD4 21 05 03           4551 	ld	hl,#_cursor_x
   0FD7 7E                 4552 	ld	a,(hl)
   0FD8 F5                 4553 	push	af
   0FD9 33                 4554 	inc	sp
                           4555 ;	genCall
   0FDA CD 00 00           4556 	call	_plot
   0FDD E8 04              4557 	lda	sp,4(sp)
                           4558 ;	paint.c 365
                           4559 ;	genMinus
                           4560 ;	AOP_HL for _cursor_y
   0FDF 21 06 03           4561 	ld	hl,#_cursor_y
   0FE2 35                 4562 	dec	(hl)
                           4563 ;	genGoto
   0FE3 C3 BB 0F           4564 	jp	00113$
                           4565 ;	genLabel
   0FE6                    4566 00116$:
                           4567 ;	paint.c 370
                           4568 ;	genAssign
                           4569 ;	AOP_HL for _cursor_x
   0FE6 21 05 03           4570 	ld	hl,#_cursor_x
   0FE9 36 50              4571 	ld	(hl),#0x50
                           4572 ;	paint.c 371
                           4573 ;	genAssign
                           4574 ;	AOP_HL for _cursor_y
   0FEB 21 06 03           4575 	ld	hl,#_cursor_y
   0FEE 36 48              4576 	ld	(hl),#0x48
                           4577 ;	paint.c 372
                           4578 ;	genAssign
                           4579 ;	AOP_HL for _current_cursor
   0FF0 21 03 03           4580 	ld	hl,#_current_cursor
   0FF3 36 03              4581 	ld	(hl),#0x03
                           4582 ;	paint.c 373
                           4583 ;	genCall
                           4584 ; _saveRegsForCall: sendSetSize: 0 deInUse: 0 bcInUse: 0 deSending: 0
   0FF5 CD 00 00           4585 	call	_set_cursor
                           4586 ;	paint.c 374
                           4587 ;	genCall
                           4588 ; _saveRegsForCall: sendSetSize: 0 deInUse: 0 bcInUse: 0 deSending: 0
   0FF8 CD 3A 09           4589 	call	_move_cursor
                           4590 ;	paint.c 376
                           4591 ;	genAssign
                           4592 ;	AOP_STK for _splash_y_1_1
   0FFB F8 03              4593 	lda	hl,3(sp)
   0FFD 36 33              4594 	ld	(hl),#0x33
                           4595 ;	genLabel
   0FFF                    4596 00121$:
                           4597 ;	genCmpLt
                           4598 ;	AOP_STK for _splash_y_1_1
   0FFF F8 03              4599 	lda	hl,3(sp)
   1001 7E                 4600 	ld	a,(hl)
   1002 FE 5E              4601 	cp	#0x5E
   1004 D2 38 10           4602 	jp	nc,00125$
                           4603 ;	paint.c 377
                           4604 ;	genAssign
   1007 06 29              4605 	ld	b,#0x29
                           4606 ;	genLabel
   1009                    4607 00117$:
                           4608 ;	genCmpLt
   1009 78                 4609 	ld	a,b
   100A FE 78              4610 	cp	#0x78
   100C 3E 00              4611 	ld	a,#0x00
   100E 17                 4612 	rla
   100F 4F                 4613 	ld	c,a
                           4614 ;	genIfx
   1010 AF                 4615 	xor	a,a
   1011 B1                 4616 	or	a,c
   1012 CA 32 10           4617 	jp	z,00123$
                           4618 ;	paint.c 378
                           4619 ;	genIpush
                           4620 ; _saveRegsForCall: sendSetSize: 0 deInUse: 0 bcInUse: 1 deSending: 0
   1015 C5                 4621 	push	bc
   1016 21 01 00           4622 	ld	hl,#0x0001
   1019 E5                 4623 	push	hl
                           4624 ;	genIpush
                           4625 ;	AOP_STK for _splash_y_1_1
   101A F8 07              4626 	lda	hl,7(sp)
   101C 7E                 4627 	ld	a,(hl)
   101D F5                 4628 	push	af
   101E 33                 4629 	inc	sp
                           4630 ;	genIpush
   101F 78                 4631 	ld	a,b
   1020 F5                 4632 	push	af
   1021 33                 4633 	inc	sp
                           4634 ;	genCall
   1022 CD 00 00           4635 	call	_plot
   1025 E8 04              4636 	lda	sp,4(sp)
   1027 C1                 4637 	pop	bc
                           4638 ;	paint.c 377
                           4639 ;	genPlus
                           4640 ;	AOP_STK for _splash_sloc1_1_0
                           4641 ;	genPlusIncr
                           4642 ;	Can't optimise plus by inc, falling back to the normal way
   1028 78                 4643 	ld	a,b
   1029 C6 01              4644 	add	a,#0x01
   102B F8 00              4645 	lda	hl,0(sp)
                           4646 ;	genAssign
                           4647 ;	AOP_STK for _splash_sloc1_1_0
   102D 77                 4648 	ld      (hl),a
   102E 47                 4649 	ld      b,a
                           4650 ;	genGoto
   102F C3 09 10           4651 	jp	00117$
                           4652 ;	genLabel
   1032                    4653 00123$:
                           4654 ;	paint.c 376
                           4655 ;	genPlus
                           4656 ;	AOP_STK for _splash_y_1_1
                           4657 ;	genPlusIncr
   1032 F8 03              4658 	lda	hl,3(sp)
   1034 34                 4659 	inc	(hl)
                           4660 ;	genGoto
   1035 C3 FF 0F           4661 	jp	00121$
                           4662 ;	genLabel
   1038                    4663 00125$:
                           4664 ;	genEndFunction
   1038 E8 04              4665 	lda	sp,4(sp)
   103A C9                 4666 	ret
   103B                    4667 ___splash_end:
                           4668 ;	paint.c 383
                           4669 ;	genLabel
                           4670 ;	genFunction
                           4671 ;	---------------------------------
                           4672 ; Function menu
                           4673 ; ---------------------------------
   103B                    4674 ___menu_start:
   103B                    4675 _menu:
   103B E8 F8              4676 	lda	sp,-8(sp)
                           4677 ;	paint.c 389
                           4678 ;	genAssign
                           4679 ;	AOP_STK for _menu_slowdown_1_1
   103D F8 05              4680 	lda	hl,5(sp)
   103F 36 32              4681 	ld	(hl),#0x32
                           4682 ;	paint.c 391
                           4683 ;	genAssign
                           4684 ;	AOP_STK for _menu_i_1_1
   1041 23                 4685 	inc	hl
   1042 23                 4686 	inc	hl
   1043 36 00              4687 	ld	(hl),#0x00
                           4688 ;	genLabel
   1045                    4689 00137$:
                           4690 ;	genCmpLt
                           4691 ;	AOP_STK for _menu_i_1_1
   1045 F8 07              4692 	lda	hl,7(sp)
   1047 7E                 4693 	ld	a,(hl)
   1048 FE 12              4694 	cp	#0x12
   104A D2 B0 10           4695 	jp	nc,00140$
                           4696 ;	paint.c 393
                           4697 ;	genCmpEq
                           4698 ;	AOP_STK for _menu_i_1_1
                           4699 ;	AOP_HL for _current_tool
                           4700 ; genCmpEq: left 1, right 1, result 1
   104D 21 00 03           4701 	ld	hl,#_current_tool
   1050 7E                 4702 	ld	a,(hl)
   1051 F8 07              4703 	lda	hl,7(sp)
   1053 BE                 4704 	cp	(hl)
   1054 20 04              4705 	jr	nz,00170$
   1056 3E 01              4706 	ld	a,#0x01
   1058 18 01              4707 	jr	00171$
   105A                    4708 00170$:
   105A AF                 4709 	xor	a,a
   105B                    4710 00171$:
   105B 4F                 4711 	ld	c,a
                           4712 ;	paint.c 394
                           4713 ;	genPlus
                           4714 ;	AOP_HL for _current_color
                           4715 ;	AOP_STK for _menu_sloc0_1_0
                           4716 ;	genPlusIncr
                           4717 ;	Can't optimise plus by inc, falling back to the normal way
   105C 21 01 03           4718 	ld	hl,#_current_color
   105F 7E                 4719 	ld	a,(hl)
   1060 C6 0A              4720 	add	a,#0x0A
   1062 F8 03              4721 	lda	hl,3(sp)
                           4722 ;	genCmpEq
                           4723 ;	AOP_STK for _menu_i_1_1
                           4724 ;	AOP_STK for _menu_sloc0_1_0
                           4725 ;	AOP_STK for _menu_sloc1_1_0
                           4726 ; genCmpEq: left 1, right 1, result 1
   1064 77                 4727 	ld      (hl),a
                           4728 ; Removed redundent load
   1065 F8 07              4729 	lda	hl,7(sp)
   1067 BE                 4730 	cp	(hl)
   1068 20 04              4731 	jr	nz,00172$
   106A 3E 01              4732 	ld	a,#0x01
   106C 18 01              4733 	jr	00173$
   106E                    4734 00172$:
   106E AF                 4735 	xor	a,a
   106F                    4736 00173$:
   106F F8 02              4737 	lda	hl,2(sp)
   1071 77                 4738 	ld	(hl),a
                           4739 ;	genOrOp
                           4740 ;	AOP_STK for _menu_sloc1_1_0
   1072 AF                 4741 	xor	a,a
   1073 B1                 4742 	or	a,c
   1074 20 02              4743 	jr	nz,00174$
   1076 AF                 4744 	xor	a,a
   1077 B6                 4745 	or	a,(hl)
   1078                    4746 00174$:
   1078 28 02              4747 	jr	z,00175$
   107A 3E 01              4748 	ld	a,#0x01
   107C                    4749 00175$:
   107C 4F                 4750 	ld	c,a
                           4751 ;	paint.c 395
                           4752 ;	genPlus
                           4753 ;	AOP_HL for _current_mode
                           4754 ;	AOP_STK for _menu_sloc1_1_0
                           4755 ;	genPlusIncr
                           4756 ;	Can't optimise plus by inc, falling back to the normal way
   107D 21 02 03           4757 	ld	hl,#_current_mode
   1080 7E                 4758 	ld	a,(hl)
   1081 C6 0E              4759 	add	a,#0x0E
   1083 F8 02              4760 	lda	hl,2(sp)
                           4761 ;	genCmpEq
                           4762 ;	AOP_STK for _menu_i_1_1
                           4763 ;	AOP_STK for _menu_sloc1_1_0
                           4764 ;	AOP_STK for _menu_sloc0_1_0
                           4765 ; genCmpEq: left 1, right 1, result 1
   1085 77                 4766 	ld      (hl),a
                           4767 ; Removed redundent load
   1086 F8 07              4768 	lda	hl,7(sp)
   1088 BE                 4769 	cp	(hl)
   1089 20 04              4770 	jr	nz,00176$
   108B 3E 01              4771 	ld	a,#0x01
   108D 18 01              4772 	jr	00177$
   108F                    4773 00176$:
   108F AF                 4774 	xor	a,a
   1090                    4775 00177$:
   1090 F8 03              4776 	lda	hl,3(sp)
   1092 77                 4777 	ld	(hl),a
                           4778 ;	genOrOp
                           4779 ;	AOP_STK for _menu_sloc0_1_0
   1093 AF                 4780 	xor	a,a
   1094 B1                 4781 	or	a,c
   1095 20 02              4782 	jr	nz,00178$
   1097 AF                 4783 	xor	a,a
   1098 B6                 4784 	or	a,(hl)
   1099                    4785 00178$:
   1099 28 02              4786 	jr	z,00179$
   109B 3E 01              4787 	ld	a,#0x01
   109D                    4788 00179$:
                           4789 ;	paint.c 392
                           4790 ;	genIpush
                           4791 ; _saveRegsForCall: sendSetSize: 0 deInUse: 0 bcInUse: 0 deSending: 0
   109D 4F                 4792 	ld	c,a
   109E F5                 4793 	push	af
   109F 33                 4794 	inc	sp
                           4795 ;	genIpush
                           4796 ;	AOP_STK for _menu_i_1_1
   10A0 F8 08              4797 	lda	hl,8(sp)
   10A2 7E                 4798 	ld	a,(hl)
   10A3 F5                 4799 	push	af
   10A4 33                 4800 	inc	sp
                           4801 ;	genCall
   10A5 CD C2 0A           4802 	call	_set_icon
   10A8 E8 02              4803 	lda	sp,2(sp)
                           4804 ;	paint.c 391
                           4805 ;	genPlus
                           4806 ;	AOP_STK for _menu_i_1_1
                           4807 ;	genPlusIncr
   10AA F8 07              4808 	lda	hl,7(sp)
   10AC 34                 4809 	inc	(hl)
                           4810 ;	genGoto
   10AD C3 45 10           4811 	jp	00137$
                           4812 ;	genLabel
   10B0                    4813 00140$:
                           4814 ;	paint.c 397
                           4815 ;	genAssign
                           4816 ;	AOP_HL for _current_cursor
                           4817 ;	AOP_STK for _menu_cursor_1_1
   10B0 21 03 03           4818 	ld	hl,#_current_cursor
   10B3 7E                 4819 	ld	a,(hl)
   10B4 F8 04              4820 	lda	hl,4(sp)
   10B6 77                 4821 	ld	(hl),a
                           4822 ;	paint.c 398
                           4823 ;	genAssign
                           4824 ;	AOP_HL for _current_cursor
   10B7 21 03 03           4825 	ld	hl,#_current_cursor
   10BA 36 00              4826 	ld	(hl),#0x00
                           4827 ;	paint.c 399
                           4828 ;	genCall
                           4829 ; _saveRegsForCall: sendSetSize: 0 deInUse: 0 bcInUse: 0 deSending: 0
   10BC CD 00 00           4830 	call	_set_cursor
                           4831 ;	paint.c 400
                           4832 ;	genCall
                           4833 ; _saveRegsForCall: sendSetSize: 0 deInUse: 0 bcInUse: 0 deSending: 0
   10BF CD 42 0A           4834 	call	_move_menu_cursor
                           4835 ;	paint.c 401
                           4836 ;	genAssign
   10C2 01 40 FF           4837 	ld	bc,#0xFF40
                           4838 ;	genAssign
                           4839 ;	AOP_STK for _menu_sloc2_1_0
   10C5 F8 00              4840 	lda	hl,0(sp)
   10C7 36 40              4841 	ld	(hl),#0x40
   10C9 23                 4842 	inc	hl
   10CA 36 FF              4843 	ld	(hl),#0xFF
                           4844 ;	genPointerGet
                           4845 ;	AOP_STK for _menu_sloc2_1_0
                           4846 ;	AOP_STK for _menu_sloc1_1_0
   10CC 2B                 4847 	dec	hl
   10CD 5E                 4848 	ld	e,(hl)
   10CE 23                 4849 	inc	hl
   10CF 56                 4850 	ld	d,(hl)
   10D0 1A                 4851 	ld	a,(de)
   10D1 23                 4852 	inc	hl
                           4853 ;	genOr
                           4854 ;	AOP_STK for _menu_sloc1_1_0
   10D2 77                 4855 	ld      (hl),a
                           4856 ; Removed redundent load
   10D3 F6 02              4857 	or	a,#0x02
                           4858 ;	genAssign (pointer)
   10D5 02                 4859 	ld	(bc),a
                           4860 ;	paint.c 402
                           4861 ;	genCall
                           4862 ; _saveRegsForCall: sendSetSize: 0 deInUse: 0 bcInUse: 0 deSending: 0
   10D6 CD 00 00           4863 	call	_waitpadup
                           4864 ;	paint.c 403
                           4865 ;	genLabel
   10D9                    4866 00134$:
                           4867 ;	paint.c 404
                           4868 ;	genCall
                           4869 ; _saveRegsForCall: sendSetSize: 0 deInUse: 0 bcInUse: 0 deSending: 0
   10D9 CD 00 00           4870 	call	_wait_vbl_done
                           4871 ;	paint.c 405
                           4872 ;	genCall
                           4873 ; _saveRegsForCall: sendSetSize: 0 deInUse: 0 bcInUse: 0 deSending: 0
   10DC CD 00 00           4874 	call	_joypad
   10DF 4B                 4875 	ld	c,e
                           4876 ;	genAssign
                           4877 ;	AOP_STK for _menu_key_1_1
   10E0 F8 06              4878 	lda	hl,6(sp)
   10E2 71                 4879 	ld	(hl),c
                           4880 ;	paint.c 406
                           4881 ;	genAnd
                           4882 ;	AOP_STK for _menu_key_1_1
   10E3 7E                 4883 	ld	a,(hl)
   10E4 E6 0F              4884 	and	a,#0x0F
   10E6 20 03              4885 	jr	nz,00180$
   10E8 C3 D0 11           4886 	jp	00114$
   10EB                    4887 00180$:
                           4888 ;	paint.c 407
                           4889 ;	genAnd
                           4890 ;	AOP_STK for _menu_key_1_1
   10EB F8 06              4891 	lda	hl,6(sp)
   10ED 7E                 4892 	ld	a,(hl)
   10EE E6 04              4893 	and	a,#0x04
   10F0 20 03              4894 	jr	nz,00181$
   10F2 C3 1A 11           4895 	jp	00102$
   10F5                    4896 00181$:
                           4897 ;	paint.c 408
                           4898 ;	genMult
                           4899 ;	AOP_HL for _menu_cursor_pos
   10F5 21 04 03           4900 	ld	hl,#_menu_cursor_pos
   10F8 5E                 4901 	ld	e,(hl)
   10F9 16 00              4902 	ld	d,#0x00
   10FB 6B                 4903 	ld	l,e
   10FC 62                 4904 	ld	h,d
   10FD 29                 4905 	add	hl,hl
   10FE 29                 4906 	add	hl,hl
   10FF 19                 4907 	add	hl,de
   1100 29                 4908 	add	hl,hl
   1101 45                 4909 	ld	b,l
   1102 4C                 4910 	ld	c,h
                           4911 ;	genPlus
                           4912 ;	Can't optimise plus by inc, falling back to the normal way
   1103 3E 10              4913 	ld	a,#<_icons
   1105 80                 4914 	add	a,b
   1106 47                 4915 	ld	b,a
   1107 3E 01              4916 	ld	a,#>_icons
   1109 89                 4917 	adc	a,c
   110A 4F                 4918 	ld	c,a
                           4919 ;	genPlus
                           4920 ;	genPlusIncr
                           4921 ;	Can't optimise plus by inc, falling back to the normal way
   110B 78                 4922 	ld	a,b
   110C C6 05              4923 	add	a,#0x05
   110E 47                 4924 	ld	b,a
   110F 79                 4925 	ld	a,c
   1110 CE 00              4926 	adc	a,#0x00
   1112 4F                 4927 	ld	c,a
                           4928 ;	genPointerGet
                           4929 ;	AOP_HL for _menu_cursor_pos
   1113 58                 4930 	ld	e,b
   1114 51                 4931 	ld	d,c
   1115 1A                 4932 	ld	a,(de)
   1116 21 04 03           4933 	ld	hl,#_menu_cursor_pos
   1119 77                 4934 	ld	(hl),a
                           4935 ;	genLabel
   111A                    4936 00102$:
                           4937 ;	paint.c 409
                           4938 ;	genAnd
                           4939 ;	AOP_STK for _menu_key_1_1
   111A F8 06              4940 	lda	hl,6(sp)
   111C 7E                 4941 	ld	a,(hl)
   111D E6 08              4942 	and	a,#0x08
   111F 20 03              4943 	jr	nz,00182$
   1121 C3 45 11           4944 	jp	00104$
   1124                    4945 00182$:
                           4946 ;	paint.c 410
                           4947 ;	genMult
                           4948 ;	AOP_HL for _menu_cursor_pos
   1124 21 04 03           4949 	ld	hl,#_menu_cursor_pos
   1127 5E                 4950 	ld	e,(hl)
   1128 16 00              4951 	ld	d,#0x00
   112A 6B                 4952 	ld	l,e
   112B 62                 4953 	ld	h,d
   112C 29                 4954 	add	hl,hl
   112D 29                 4955 	add	hl,hl
   112E 19                 4956 	add	hl,de
   112F 29                 4957 	add	hl,hl
   1130 4D                 4958 	ld	c,l
   1131 44                 4959 	ld	b,h
                           4960 ;	genPlus
                           4961 ;	Can't optimise plus by inc, falling back to the normal way
   1132 21 10 01           4962 	ld	hl,#_icons
   1135 09                 4963 	add	hl,bc
   1136 4D                 4964 	ld	c,l
   1137 44                 4965 	ld	b,h
                           4966 ;	genPlus
                           4967 ;	genPlusIncr
                           4968 ;	Can't optimise plus by inc, falling back to the normal way
   1138 79                 4969 	ld	a,c
   1139 C6 06              4970 	add	a,#0x06
   113B 4F                 4971 	ld	c,a
   113C 78                 4972 	ld	a,b
   113D CE 00              4973 	adc	a,#0x00
   113F 47                 4974 	ld	b,a
                           4975 ;	genPointerGet
                           4976 ;	AOP_HL for _menu_cursor_pos
   1140 0A                 4977 	ld	a,(bc)
   1141 21 04 03           4978 	ld	hl,#_menu_cursor_pos
   1144 77                 4979 	ld	(hl),a
                           4980 ;	genLabel
   1145                    4981 00104$:
                           4982 ;	paint.c 411
                           4983 ;	genAnd
                           4984 ;	AOP_STK for _menu_key_1_1
   1145 F8 06              4985 	lda	hl,6(sp)
   1147 7E                 4986 	ld	a,(hl)
   1148 E6 02              4987 	and	a,#0x02
   114A 20 03              4988 	jr	nz,00183$
   114C C3 70 11           4989 	jp	00106$
   114F                    4990 00183$:
                           4991 ;	paint.c 412
                           4992 ;	genMult
                           4993 ;	AOP_HL for _menu_cursor_pos
   114F 21 04 03           4994 	ld	hl,#_menu_cursor_pos
   1152 5E                 4995 	ld	e,(hl)
   1153 16 00              4996 	ld	d,#0x00
   1155 6B                 4997 	ld	l,e
   1156 62                 4998 	ld	h,d
   1157 29                 4999 	add	hl,hl
   1158 29                 5000 	add	hl,hl
   1159 19                 5001 	add	hl,de
   115A 29                 5002 	add	hl,hl
   115B 4D                 5003 	ld	c,l
   115C 44                 5004 	ld	b,h
                           5005 ;	genPlus
                           5006 ;	Can't optimise plus by inc, falling back to the normal way
   115D 21 10 01           5007 	ld	hl,#_icons
   1160 09                 5008 	add	hl,bc
   1161 4D                 5009 	ld	c,l
   1162 44                 5010 	ld	b,h
                           5011 ;	genPlus
                           5012 ;	genPlusIncr
                           5013 ;	Can't optimise plus by inc, falling back to the normal way
   1163 79                 5014 	ld	a,c
   1164 C6 07              5015 	add	a,#0x07
   1166 4F                 5016 	ld	c,a
   1167 78                 5017 	ld	a,b
   1168 CE 00              5018 	adc	a,#0x00
   116A 47                 5019 	ld	b,a
                           5020 ;	genPointerGet
                           5021 ;	AOP_HL for _menu_cursor_pos
   116B 0A                 5022 	ld	a,(bc)
   116C 21 04 03           5023 	ld	hl,#_menu_cursor_pos
   116F 77                 5024 	ld	(hl),a
                           5025 ;	genLabel
   1170                    5026 00106$:
                           5027 ;	paint.c 413
                           5028 ;	genAnd
                           5029 ;	AOP_STK for _menu_key_1_1
   1170 F8 06              5030 	lda	hl,6(sp)
   1172 7E                 5031 	ld	a,(hl)
   1173 E6 01              5032 	and	a,#0x01
   1175 20 03              5033 	jr	nz,00184$
   1177 C3 9B 11           5034 	jp	00108$
   117A                    5035 00184$:
                           5036 ;	paint.c 414
                           5037 ;	genMult
                           5038 ;	AOP_HL for _menu_cursor_pos
   117A 21 04 03           5039 	ld	hl,#_menu_cursor_pos
   117D 5E                 5040 	ld	e,(hl)
   117E 16 00              5041 	ld	d,#0x00
   1180 6B                 5042 	ld	l,e
   1181 62                 5043 	ld	h,d
   1182 29                 5044 	add	hl,hl
   1183 29                 5045 	add	hl,hl
   1184 19                 5046 	add	hl,de
   1185 29                 5047 	add	hl,hl
   1186 4D                 5048 	ld	c,l
   1187 44                 5049 	ld	b,h
                           5050 ;	genPlus
                           5051 ;	Can't optimise plus by inc, falling back to the normal way
   1188 21 10 01           5052 	ld	hl,#_icons
   118B 09                 5053 	add	hl,bc
   118C 4D                 5054 	ld	c,l
   118D 44                 5055 	ld	b,h
                           5056 ;	genPlus
                           5057 ;	genPlusIncr
                           5058 ;	Can't optimise plus by inc, falling back to the normal way
   118E 79                 5059 	ld	a,c
   118F C6 08              5060 	add	a,#0x08
   1191 4F                 5061 	ld	c,a
   1192 78                 5062 	ld	a,b
   1193 CE 00              5063 	adc	a,#0x00
   1195 47                 5064 	ld	b,a
                           5065 ;	genPointerGet
                           5066 ;	AOP_HL for _menu_cursor_pos
   1196 0A                 5067 	ld	a,(bc)
   1197 21 04 03           5068 	ld	hl,#_menu_cursor_pos
   119A 77                 5069 	ld	(hl),a
                           5070 ;	genLabel
   119B                    5071 00108$:
                           5072 ;	paint.c 415
                           5073 ;	genCall
                           5074 ; _saveRegsForCall: sendSetSize: 0 deInUse: 0 bcInUse: 0 deSending: 0
   119B CD 42 0A           5075 	call	_move_menu_cursor
                           5076 ;	paint.c 416
                           5077 ;	genLabel
   119E                    5078 00110$:
                           5079 ;	genIfx
                           5080 ;	AOP_STK for _menu_slowdown_1_1
   119E AF                 5081 	xor	a,a
   119F F8 05              5082 	lda	hl,5(sp)
   11A1 B6                 5083 	or	a,(hl)
   11A2 CA C9 11           5084 	jp	z,00112$
                           5085 ;	genCall
                           5086 ; _saveRegsForCall: sendSetSize: 0 deInUse: 0 bcInUse: 0 deSending: 0
   11A5 CD 00 00           5087 	call	_joypad
   11A8 4B                 5088 	ld	c,e
                           5089 ;	genCmpEq
                           5090 ;	AOP_STK for _menu_key_1_1
                           5091 ; genCmpEq: left 1, right 1, result 1
   11A9 F8 06              5092 	lda	hl,6(sp)
   11AB 7E                 5093 	ld	a,(hl)
   11AC B9                 5094 	cp	c
   11AD C2 B4 11           5095 	jp	nz,00185$
   11B0 3E 01              5096 	ld	a,#0x01
   11B2 18 01              5097 	jr	00186$
   11B4                    5098 00185$:
   11B4 AF                 5099 	xor	a,a
   11B5                    5100 00186$:
                           5101 ;	genIfx
   11B5 B7                 5102 	or	a,a
   11B6 CA C9 11           5103 	jp	z,00112$
                           5104 ;	paint.c 417
                           5105 ;	genCall
                           5106 ; _saveRegsForCall: sendSetSize: 0 deInUse: 0 bcInUse: 1 deSending: 0
   11B9 C5                 5107 	push	bc
   11BA CD 00 00           5108 	call	_wait_vbl_done
   11BD E1                 5109 	pop	hl
   11BE 4D                 5110 	ld	c,l
                           5111 ;	paint.c 418
                           5112 ;	genMinus
                           5113 ;	AOP_STK for _menu_slowdown_1_1
   11BF F8 05              5114 	lda	hl,5(sp)
   11C1 7E                 5115 	ld	a,(hl)
   11C2 C6 FF              5116 	add	a,#0xFF
   11C4 47                 5117 	ld	b,a
                           5118 ;	genAssign
                           5119 ;	AOP_STK for _menu_slowdown_1_1
   11C5 70                 5120 	ld	(hl),b
                           5121 ;	genGoto
   11C6 C3 9E 11           5122 	jp	00110$
                           5123 ;	genLabel
   11C9                    5124 00112$:
                           5125 ;	paint.c 420
                           5126 ;	genAssign
                           5127 ;	AOP_STK for _menu_slowdown_1_1
   11C9 F8 05              5128 	lda	hl,5(sp)
   11CB 36 0A              5129 	ld	(hl),#0x0A
                           5130 ;	genGoto
   11CD C3 D4 11           5131 	jp	00115$
                           5132 ;	genLabel
   11D0                    5133 00114$:
                           5134 ;	paint.c 422
                           5135 ;	genAssign
                           5136 ;	AOP_STK for _menu_slowdown_1_1
   11D0 F8 05              5137 	lda	hl,5(sp)
   11D2 36 32              5138 	ld	(hl),#0x32
                           5139 ;	genLabel
   11D4                    5140 00115$:
                           5141 ;	paint.c 423
                           5142 ;	genAnd
                           5143 ;	AOP_STK for _menu_key_1_1
   11D4 F8 06              5144 	lda	hl,6(sp)
   11D6 7E                 5145 	ld	a,(hl)
   11D7 E6 10              5146 	and	a,#0x10
   11D9 20 03              5147 	jr	nz,00187$
   11DB C3 C4 12           5148 	jp	00135$
   11DE                    5149 00187$:
                           5150 ;	paint.c 424
                           5151 ;	genCmpGt
                           5152 ;	AOP_HL for _menu_cursor_pos
   11DE 3E 09              5153 	ld	a,#0x09
   11E0 21 04 03           5154 	ld	hl,#_menu_cursor_pos
   11E3 96                 5155 	sub	a,(hl)
   11E4 DA 3B 12           5156 	jp	c,00130$
                           5157 ;	paint.c 425
                           5158 ;	genCmpEq
                           5159 ;	AOP_HL for _menu_cursor_pos
                           5160 ;	AOP_HL for _current_tool
                           5161 ; genCmpEq: left 1, right 1, result 0
   11E7 21 00 03           5162 	ld	hl,#_current_tool
   11EA 7E                 5163 	ld	a,(hl)
   11EB 21 04 03           5164 	ld	hl,#_menu_cursor_pos
   11EE BE                 5165 	cp	(hl)
   11EF 20 03              5166 	jr	nz,00188$
   11F1 C3 C4 12           5167 	jp	00135$
   11F4                    5168 00188$:
                           5169 ;	paint.c 426
                           5170 ;	genIpush
                           5171 ; _saveRegsForCall: sendSetSize: 0 deInUse: 0 bcInUse: 0 deSending: 0
   11F4 3E 00              5172 	ld	a,#0x00
   11F6 F5                 5173 	push	af
   11F7 33                 5174 	inc	sp
                           5175 ;	genIpush
                           5176 ;	AOP_HL for _current_tool
   11F8 21 00 03           5177 	ld	hl,#_current_tool
   11FB 7E                 5178 	ld	a,(hl)
   11FC F5                 5179 	push	af
   11FD 33                 5180 	inc	sp
                           5181 ;	genCall
   11FE CD 3E 0C           5182 	call	_change_icon
   1201 E8 02              5183 	lda	sp,2(sp)
                           5184 ;	paint.c 427
                           5185 ;	genAssign
                           5186 ;	AOP_HL for _menu_cursor_pos
                           5187 ;	AOP_HL for _current_tool
   1203 21 04 03           5188 	ld	hl,#_menu_cursor_pos
   1206 7E                 5189 	ld	a,(hl)
   1207 21 00 03           5190 	ld	hl,#_current_tool
   120A 77                 5191 	ld	(hl),a
                           5192 ;	paint.c 428
                           5193 ;	genIpush
                           5194 ; _saveRegsForCall: sendSetSize: 0 deInUse: 0 bcInUse: 0 deSending: 0
   120B 3E 01              5195 	ld	a,#0x01
   120D F5                 5196 	push	af
   120E 33                 5197 	inc	sp
                           5198 ;	genIpush
                           5199 ;	AOP_HL for _current_tool
   120F 7E                 5200 	ld	a,(hl)
   1210 F5                 5201 	push	af
   1211 33                 5202 	inc	sp
                           5203 ;	genCall
   1212 CD 3E 0C           5204 	call	_change_icon
   1215 E8 02              5205 	lda	sp,2(sp)
                           5206 ;	paint.c 429
                           5207 ;	genMult
                           5208 ;	AOP_HL for _current_tool
   1217 21 00 03           5209 	ld	hl,#_current_tool
   121A 5E                 5210 	ld	e,(hl)
   121B 16 00              5211 	ld	d,#0x00
   121D 6B                 5212 	ld	l,e
   121E 62                 5213 	ld	h,d
   121F 29                 5214 	add	hl,hl
   1220 29                 5215 	add	hl,hl
   1221 19                 5216 	add	hl,de
   1222 29                 5217 	add	hl,hl
   1223 4D                 5218 	ld	c,l
   1224 44                 5219 	ld	b,h
                           5220 ;	genPlus
                           5221 ;	Can't optimise plus by inc, falling back to the normal way
   1225 21 10 01           5222 	ld	hl,#_icons
   1228 09                 5223 	add	hl,bc
   1229 4D                 5224 	ld	c,l
   122A 44                 5225 	ld	b,h
                           5226 ;	genPlus
                           5227 ;	genPlusIncr
                           5228 ;	Can't optimise plus by inc, falling back to the normal way
   122B 79                 5229 	ld	a,c
   122C C6 09              5230 	add	a,#0x09
   122E 4F                 5231 	ld	c,a
   122F 78                 5232 	ld	a,b
   1230 CE 00              5233 	adc	a,#0x00
   1232 47                 5234 	ld	b,a
                           5235 ;	genPointerGet
   1233 0A                 5236 	ld	a,(bc)
   1234 4F                 5237 	ld	c,a
                           5238 ;	genAssign
                           5239 ;	AOP_STK for _menu_cursor_1_1
   1235 F8 04              5240 	lda	hl,4(sp)
   1237 71                 5241 	ld	(hl),c
                           5242 ;	genGoto
   1238 C3 C4 12           5243 	jp	00135$
                           5244 ;	genLabel
   123B                    5245 00130$:
                           5246 ;	paint.c 431
                           5247 ;	genCmpLt
                           5248 ;	AOP_HL for _menu_cursor_pos
   123B 21 04 03           5249 	ld	hl,#_menu_cursor_pos
   123E 7E                 5250 	ld	a,(hl)
   123F FE 0A              5251 	cp	#0x0A
   1241 DA 81 12           5252 	jp	c,00126$
                           5253 ;	genCmpGt
                           5254 ;	AOP_HL for _menu_cursor_pos
   1244 3E 0D              5255 	ld	a,#0x0D
   1246 96                 5256 	sub	a,(hl)
   1247 DA 81 12           5257 	jp	c,00126$
                           5258 ;	paint.c 432
                           5259 ;	genPlus
                           5260 ;	AOP_HL for _current_color
                           5261 ;	genPlusIncr
                           5262 ;	Can't optimise plus by inc, falling back to the normal way
   124A 21 01 03           5263 	ld	hl,#_current_color
   124D 7E                 5264 	ld	a,(hl)
   124E C6 0A              5265 	add	a,#0x0A
   1250 4F                 5266 	ld	c,a
                           5267 ;	genCmpEq
                           5268 ;	AOP_HL for _menu_cursor_pos
                           5269 ; genCmpEq: left 1, right 1, result 0
   1251 21 04 03           5270 	ld	hl,#_menu_cursor_pos
   1254 7E                 5271 	ld	a,(hl)
   1255 B9                 5272 	cp	c
   1256 CA C4 12           5273 	jp	z,00135$
   1259                    5274 00189$:
                           5275 ;	paint.c 433
                           5276 ;	genIpush
                           5277 ; _saveRegsForCall: sendSetSize: 0 deInUse: 0 bcInUse: 0 deSending: 0
   1259 3E 00              5278 	ld	a,#0x00
   125B F5                 5279 	push	af
   125C 33                 5280 	inc	sp
                           5281 ;	genIpush
   125D 79                 5282 	ld	a,c
   125E F5                 5283 	push	af
   125F 33                 5284 	inc	sp
                           5285 ;	genCall
   1260 CD 3E 0C           5286 	call	_change_icon
   1263 E8 02              5287 	lda	sp,2(sp)
                           5288 ;	paint.c 434
                           5289 ;	genMinus
                           5290 ;	AOP_HL for _menu_cursor_pos
                           5291 ;	AOP_HL for _current_color
   1265 21 04 03           5292 	ld	hl,#_menu_cursor_pos
   1268 7E                 5293 	ld	a,(hl)
   1269 C6 F6              5294 	add	a,#0xF6
   126B 21 01 03           5295 	ld	hl,#_current_color
                           5296 ;	paint.c 435
                           5297 ;	genPlus
                           5298 ;	AOP_HL for _current_color
                           5299 ;	genPlusIncr
                           5300 ;	Can't optimise plus by inc, falling back to the normal way
   126E 77                 5301 	ld      (hl),a
                           5302 ; Removed redundent load
   126F C6 0A              5303 	add	a,#0x0A
   1271 4F                 5304 	ld	c,a
                           5305 ;	genIpush
                           5306 ; _saveRegsForCall: sendSetSize: 0 deInUse: 0 bcInUse: 0 deSending: 0
   1272 3E 01              5307 	ld	a,#0x01
   1274 F5                 5308 	push	af
   1275 33                 5309 	inc	sp
                           5310 ;	genIpush
   1276 79                 5311 	ld	a,c
   1277 F5                 5312 	push	af
   1278 33                 5313 	inc	sp
                           5314 ;	genCall
   1279 CD 3E 0C           5315 	call	_change_icon
   127C E8 02              5316 	lda	sp,2(sp)
                           5317 ;	genGoto
   127E C3 C4 12           5318 	jp	00135$
                           5319 ;	genLabel
   1281                    5320 00126$:
                           5321 ;	paint.c 437
                           5322 ;	genCmpLt
                           5323 ;	AOP_HL for _menu_cursor_pos
   1281 21 04 03           5324 	ld	hl,#_menu_cursor_pos
   1284 7E                 5325 	ld	a,(hl)
   1285 FE 0E              5326 	cp	#0x0E
   1287 DA C4 12           5327 	jp	c,00135$
                           5328 ;	genCmpGt
                           5329 ;	AOP_HL for _menu_cursor_pos
   128A 3E 11              5330 	ld	a,#0x11
   128C 96                 5331 	sub	a,(hl)
   128D DA C4 12           5332 	jp	c,00135$
                           5333 ;	paint.c 438
                           5334 ;	genPlus
                           5335 ;	AOP_HL for _current_mode
                           5336 ;	genPlusIncr
                           5337 ;	Can't optimise plus by inc, falling back to the normal way
   1290 21 02 03           5338 	ld	hl,#_current_mode
   1293 7E                 5339 	ld	a,(hl)
   1294 C6 0E              5340 	add	a,#0x0E
   1296 4F                 5341 	ld	c,a
                           5342 ;	genCmpEq
                           5343 ;	AOP_HL for _menu_cursor_pos
                           5344 ; genCmpEq: left 1, right 1, result 0
   1297 21 04 03           5345 	ld	hl,#_menu_cursor_pos
   129A 7E                 5346 	ld	a,(hl)
   129B B9                 5347 	cp	c
   129C CA C4 12           5348 	jp	z,00135$
   129F                    5349 00190$:
                           5350 ;	paint.c 439
                           5351 ;	genIpush
                           5352 ; _saveRegsForCall: sendSetSize: 0 deInUse: 0 bcInUse: 0 deSending: 0
   129F 3E 00              5353 	ld	a,#0x00
   12A1 F5                 5354 	push	af
   12A2 33                 5355 	inc	sp
                           5356 ;	genIpush
   12A3 79                 5357 	ld	a,c
   12A4 F5                 5358 	push	af
   12A5 33                 5359 	inc	sp
                           5360 ;	genCall
   12A6 CD 3E 0C           5361 	call	_change_icon
   12A9 E8 02              5362 	lda	sp,2(sp)
                           5363 ;	paint.c 440
                           5364 ;	genMinus
                           5365 ;	AOP_HL for _menu_cursor_pos
                           5366 ;	AOP_HL for _current_mode
   12AB 21 04 03           5367 	ld	hl,#_menu_cursor_pos
   12AE 7E                 5368 	ld	a,(hl)
   12AF C6 F2              5369 	add	a,#0xF2
   12B1 21 02 03           5370 	ld	hl,#_current_mode
                           5371 ;	paint.c 441
                           5372 ;	genPlus
                           5373 ;	AOP_HL for _current_mode
                           5374 ;	genPlusIncr
                           5375 ;	Can't optimise plus by inc, falling back to the normal way
   12B4 77                 5376 	ld      (hl),a
                           5377 ; Removed redundent load
   12B5 C6 0E              5378 	add	a,#0x0E
   12B7 4F                 5379 	ld	c,a
                           5380 ;	genIpush
                           5381 ; _saveRegsForCall: sendSetSize: 0 deInUse: 0 bcInUse: 0 deSending: 0
   12B8 3E 01              5382 	ld	a,#0x01
   12BA F5                 5383 	push	af
   12BB 33                 5384 	inc	sp
                           5385 ;	genIpush
   12BC 79                 5386 	ld	a,c
   12BD F5                 5387 	push	af
   12BE 33                 5388 	inc	sp
                           5389 ;	genCall
   12BF CD 3E 0C           5390 	call	_change_icon
   12C2 E8 02              5391 	lda	sp,2(sp)
                           5392 ;	genLabel
   12C4                    5393 00135$:
                           5394 ;	paint.c 445
                           5395 ;	genCmpEq
                           5396 ;	AOP_STK for _menu_key_1_1
                           5397 ; genCmpEq: left 1, right 1, result 0
   12C4 F8 06              5398 	lda	hl,6(sp)
   12C6 7E                 5399 	ld	a,(hl)
   12C7 FE 40              5400 	cp	a,#0x40
   12C9 C2 D9 10           5401 	jp	nz,00134$
   12CC 18 03              5402 	jr	00192$
   12CE                    5403 00191$:
   12CE C3 D9 10           5404 	jp	00134$
   12D1                    5405 00192$:
                           5406 ;	paint.c 446
                           5407 ;	genCall
                           5408 ; _saveRegsForCall: sendSetSize: 0 deInUse: 0 bcInUse: 0 deSending: 0
   12D1 CD 00 00           5409 	call	_waitpadup
                           5410 ;	paint.c 447
                           5411 ;	genAssign
                           5412 ;	AOP_STK for _menu_i_1_1
   12D4 F8 07              5413 	lda	hl,7(sp)
   12D6 36 00              5414 	ld	(hl),#0x00
                           5415 ;	genLabel
   12D8                    5416 00141$:
                           5417 ;	genCmpLt
                           5418 ;	AOP_STK for _menu_i_1_1
   12D8 F8 07              5419 	lda	hl,7(sp)
   12DA 7E                 5420 	ld	a,(hl)
   12DB FE 12              5421 	cp	#0x12
   12DD D2 EE 12           5422 	jp	nc,00144$
                           5423 ;	paint.c 448
                           5424 ;	genIpush
                           5425 ; _saveRegsForCall: sendSetSize: 0 deInUse: 0 bcInUse: 0 deSending: 0
                           5426 ;	AOP_STK for _menu_i_1_1
   12E0 7E                 5427 	ld	a,(hl)
   12E1 F5                 5428 	push	af
   12E2 33                 5429 	inc	sp
                           5430 ;	genCall
   12E3 CD 06 0E           5431 	call	_reset_icon
   12E6 E8 01              5432 	lda	sp,1(sp)
                           5433 ;	paint.c 447
                           5434 ;	genPlus
                           5435 ;	AOP_STK for _menu_i_1_1
                           5436 ;	genPlusIncr
   12E8 F8 07              5437 	lda	hl,7(sp)
   12EA 34                 5438 	inc	(hl)
                           5439 ;	genGoto
   12EB C3 D8 12           5440 	jp	00141$
                           5441 ;	genLabel
   12EE                    5442 00144$:
                           5443 ;	paint.c 449
                           5444 ;	genAssign
   12EE 01 40 FF           5445 	ld	bc,#0xFF40
                           5446 ;	genAssign
                           5447 ;	AOP_STK for _menu_sloc2_1_0
   12F1 F8 00              5448 	lda	hl,0(sp)
   12F3 36 40              5449 	ld	(hl),#0x40
   12F5 23                 5450 	inc	hl
   12F6 36 FF              5451 	ld	(hl),#0xFF
                           5452 ;	genPointerGet
                           5453 ;	AOP_STK for _menu_sloc2_1_0
                           5454 ;	AOP_STK for _menu_sloc1_1_0
   12F8 2B                 5455 	dec	hl
   12F9 5E                 5456 	ld	e,(hl)
   12FA 23                 5457 	inc	hl
   12FB 56                 5458 	ld	d,(hl)
   12FC 1A                 5459 	ld	a,(de)
   12FD 23                 5460 	inc	hl
                           5461 ;	genAnd
                           5462 ;	AOP_STK for _menu_sloc1_1_0
   12FE 77                 5463 	ld      (hl),a
                           5464 ; Removed redundent load
   12FF E6 FD              5465 	and	a,#0xFD
                           5466 ;	genAssign (pointer)
   1301 02                 5467 	ld	(bc),a
                           5468 ;	paint.c 450
                           5469 ;	genAssign
                           5470 ;	AOP_STK for _menu_cursor_1_1
                           5471 ;	AOP_HL for _current_cursor
   1302 23                 5472 	inc	hl
   1303 23                 5473 	inc	hl
   1304 7E                 5474 	ld	a,(hl)
   1305 21 03 03           5475 	ld	hl,#_current_cursor
   1308 77                 5476 	ld	(hl),a
                           5477 ;	genLabel
   1309                    5478 00145$:
                           5479 ;	genEndFunction
   1309 E8 08              5480 	lda	sp,8(sp)
   130B C9                 5481 	ret
   130C                    5482 ___menu_end:
                           5483 ;	paint.c 453
                           5484 ;	genLabel
                           5485 ;	genFunction
                           5486 ;	---------------------------------
                           5487 ; Function run
                           5488 ; ---------------------------------
   130C                    5489 ___run_start:
   130C                    5490 _run:
   130C E8 F9              5491 	lda	sp,-7(sp)
                           5492 ;	paint.c 459
                           5493 ;	genAssign
                           5494 ;	AOP_STK for _run_slowdown_1_1
   130E F8 05              5495 	lda	hl,5(sp)
   1310 36 0A              5496 	ld	(hl),#0x0A
                           5497 ;	paint.c 460
                           5498 ;	genAssign
                           5499 ;	AOP_STK for _run_erased_1_1
   1312 2B                 5500 	dec	hl
   1313 2B                 5501 	dec	hl
   1314 36 00              5502 	ld	(hl),#0x00
                           5503 ;	genAssign
                           5504 ;	AOP_STK for _run_drawn_1_1
   1316 23                 5505 	inc	hl
   1317 36 00              5506 	ld	(hl),#0x00
                           5507 ;	paint.c 462
                           5508 ;	genCall
                           5509 ; _saveRegsForCall: sendSetSize: 0 deInUse: 0 bcInUse: 0 deSending: 0
   1319 CD 00 00           5510 	call	_set_cursor
                           5511 ;	paint.c 463
                           5512 ;	genCall
                           5513 ; _saveRegsForCall: sendSetSize: 0 deInUse: 0 bcInUse: 0 deSending: 0
   131C CD 3A 09           5514 	call	_move_cursor
                           5515 ;	paint.c 464
                           5516 ;	genAssign
   131F 06 40              5517 	ld	b,#0x40
   1321 0E FF              5518 	ld	c,#0xFF
                           5519 ;	genAssign
                           5520 ;	AOP_STK for _run_sloc0_1_0
   1323 F8 01              5521 	lda	hl,1(sp)
   1325 36 40              5522 	ld	(hl),#0x40
   1327 23                 5523 	inc	hl
   1328 36 FF              5524 	ld	(hl),#0xFF
                           5525 ;	genPointerGet
                           5526 ;	AOP_STK for _run_sloc0_1_0
                           5527 ;	AOP_STK for _run_sloc1_1_0
   132A 2B                 5528 	dec	hl
   132B 5E                 5529 	ld	e,(hl)
   132C 23                 5530 	inc	hl
   132D 56                 5531 	ld	d,(hl)
   132E 1A                 5532 	ld	a,(de)
   132F 2B                 5533 	dec	hl
   1330 2B                 5534 	dec	hl
                           5535 ;	genOr
                           5536 ;	AOP_STK for _run_sloc1_1_0
   1331 77                 5537 	ld      (hl),a
                           5538 ; Removed redundent load
   1332 F6 02              5539 	or	a,#0x02
                           5540 ;	genAssign (pointer)
   1334 58                 5541 	ld	e,b
   1335 51                 5542 	ld	d,c
   1336 12                 5543 	ld	(de),a
                           5544 ;	paint.c 466
                           5545 ;	genLabel
   1337                    5546 00133$:
                           5547 ;	paint.c 467
                           5548 ;	genCall
                           5549 ; _saveRegsForCall: sendSetSize: 0 deInUse: 0 bcInUse: 0 deSending: 0
   1337 CD 00 00           5550 	call	_wait_vbl_done
                           5551 ;	paint.c 468
                           5552 ;	genCall
                           5553 ; _saveRegsForCall: sendSetSize: 0 deInUse: 0 bcInUse: 0 deSending: 0
   133A CD 00 00           5554 	call	_joypad
   133D 4B                 5555 	ld	c,e
                           5556 ;	genAssign
                           5557 ;	AOP_STK for _run_key_1_1
   133E F8 06              5558 	lda	hl,6(sp)
   1340 71                 5559 	ld	(hl),c
                           5560 ;	paint.c 469
                           5561 ;	genAnd
                           5562 ;	AOP_STK for _run_key_1_1
   1341 7E                 5563 	ld	a,(hl)
   1342 E6 0F              5564 	and	a,#0x0F
   1344 20 03              5565 	jr	nz,00155$
   1346 C3 D9 13           5566 	jp	00118$
   1349                    5567 00155$:
                           5568 ;	paint.c 470
                           5569 ;	genAnd
                           5570 ;	AOP_STK for _run_key_1_1
   1349 F8 06              5571 	lda	hl,6(sp)
   134B 7E                 5572 	ld	a,(hl)
   134C E6 04              5573 	and	a,#0x04
   134E 20 03              5574 	jr	nz,00156$
   1350 C3 5D 13           5575 	jp	00102$
   1353                    5576 00156$:
                           5577 ;	genCmpGt
                           5578 ;	AOP_HL for _cursor_y
   1353 3E 00              5579 	ld	a,#0x00
   1355 21 06 03           5580 	ld	hl,#_cursor_y
   1358 96                 5581 	sub	a,(hl)
   1359 D2 5D 13           5582 	jp	nc,00102$
                           5583 ;	paint.c 471
                           5584 ;	genMinus
                           5585 ;	AOP_HL for _cursor_y
   135C 35                 5586 	dec	(hl)
                           5587 ;	genLabel
   135D                    5588 00102$:
                           5589 ;	paint.c 472
                           5590 ;	genAnd
                           5591 ;	AOP_STK for _run_key_1_1
   135D F8 06              5592 	lda	hl,6(sp)
   135F 7E                 5593 	ld	a,(hl)
   1360 E6 08              5594 	and	a,#0x08
   1362 20 03              5595 	jr	nz,00157$
   1364 C3 71 13           5596 	jp	00105$
   1367                    5597 00157$:
                           5598 ;	genCmpLt
                           5599 ;	AOP_HL for _cursor_y
   1367 21 06 03           5600 	ld	hl,#_cursor_y
   136A 7E                 5601 	ld	a,(hl)
   136B FE 8F              5602 	cp	#0x8F
   136D D2 71 13           5603 	jp	nc,00105$
                           5604 ;	paint.c 473
                           5605 ;	genPlus
                           5606 ;	AOP_HL for _cursor_y
                           5607 ;	genPlusIncr
   1370 34                 5608 	inc	(hl)
                           5609 ;	genLabel
   1371                    5610 00105$:
                           5611 ;	paint.c 474
                           5612 ;	genAnd
                           5613 ;	AOP_STK for _run_key_1_1
   1371 F8 06              5614 	lda	hl,6(sp)
   1373 7E                 5615 	ld	a,(hl)
   1374 E6 02              5616 	and	a,#0x02
   1376 20 03              5617 	jr	nz,00158$
   1378 C3 85 13           5618 	jp	00108$
   137B                    5619 00158$:
                           5620 ;	genCmpGt
                           5621 ;	AOP_HL for _cursor_x
   137B 3E 00              5622 	ld	a,#0x00
   137D 21 05 03           5623 	ld	hl,#_cursor_x
   1380 96                 5624 	sub	a,(hl)
   1381 D2 85 13           5625 	jp	nc,00108$
                           5626 ;	paint.c 475
                           5627 ;	genMinus
                           5628 ;	AOP_HL for _cursor_x
   1384 35                 5629 	dec	(hl)
                           5630 ;	genLabel
   1385                    5631 00108$:
                           5632 ;	paint.c 476
                           5633 ;	genAnd
                           5634 ;	AOP_STK for _run_key_1_1
   1385 F8 06              5635 	lda	hl,6(sp)
   1387 7E                 5636 	ld	a,(hl)
   1388 E6 01              5637 	and	a,#0x01
   138A 20 03              5638 	jr	nz,00159$
   138C C3 99 13           5639 	jp	00111$
   138F                    5640 00159$:
                           5641 ;	genCmpLt
                           5642 ;	AOP_HL for _cursor_x
   138F 21 05 03           5643 	ld	hl,#_cursor_x
   1392 7E                 5644 	ld	a,(hl)
   1393 FE 9F              5645 	cp	#0x9F
   1395 D2 99 13           5646 	jp	nc,00111$
                           5647 ;	paint.c 477
                           5648 ;	genPlus
                           5649 ;	AOP_HL for _cursor_x
                           5650 ;	genPlusIncr
   1398 34                 5651 	inc	(hl)
                           5652 ;	genLabel
   1399                    5653 00111$:
                           5654 ;	paint.c 478
                           5655 ;	genCall
                           5656 ; _saveRegsForCall: sendSetSize: 0 deInUse: 0 bcInUse: 0 deSending: 0
   1399 CD 3A 09           5657 	call	_move_cursor
                           5658 ;	paint.c 479
                           5659 ;	genLabel
   139C                    5660 00114$:
                           5661 ;	genIfx
                           5662 ;	AOP_STK for _run_slowdown_1_1
   139C AF                 5663 	xor	a,a
   139D F8 05              5664 	lda	hl,5(sp)
   139F B6                 5665 	or	a,(hl)
   13A0 CA CB 13           5666 	jp	z,00116$
                           5667 ;	genCall
                           5668 ; _saveRegsForCall: sendSetSize: 0 deInUse: 0 bcInUse: 0 deSending: 0
   13A3 CD 00 00           5669 	call	_joypad
   13A6 43                 5670 	ld	b,e
                           5671 ;	genCmpEq
                           5672 ;	AOP_STK for _run_key_1_1
                           5673 ; genCmpEq: left 1, right 1, result 1
   13A7 F8 06              5674 	lda	hl,6(sp)
   13A9 7E                 5675 	ld	a,(hl)
   13AA B8                 5676 	cp	b
   13AB C2 B2 13           5677 	jp	nz,00160$
   13AE 3E 01              5678 	ld	a,#0x01
   13B0 18 01              5679 	jr	00161$
   13B2                    5680 00160$:
   13B2 AF                 5681 	xor	a,a
   13B3                    5682 00161$:
                           5683 ;	genIfx
   13B3 B7                 5684 	or	a,a
   13B4 CA CB 13           5685 	jp	z,00116$
                           5686 ;	paint.c 480
                           5687 ;	genCall
                           5688 ; _saveRegsForCall: sendSetSize: 0 deInUse: 0 bcInUse: 1 deSending: 0
   13B7 C5                 5689 	push	bc
   13B8 CD 00 00           5690 	call	_wait_vbl_done
   13BB E1                 5691 	pop	hl
   13BC 44                 5692 	ld	b,h
                           5693 ;	paint.c 481
                           5694 ;	genMinus
                           5695 ;	AOP_STK for _run_slowdown_1_1
                           5696 ;	AOP_STK for _run_sloc1_1_0
   13BD F8 05              5697 	lda	hl,5(sp)
   13BF 7E                 5698 	ld	a,(hl)
   13C0 C6 FF              5699 	add	a,#0xFF
   13C2 F8 00              5700 	lda	hl,0(sp)
                           5701 ;	genAssign
                           5702 ;	AOP_STK for _run_sloc1_1_0
                           5703 ;	AOP_STK for _run_slowdown_1_1
   13C4 77                 5704 	ld      (hl),a
                           5705 ; Removed redundent load
   13C5 F8 05              5706 	lda	hl,5(sp)
   13C7 77                 5707 	ld	(hl),a
                           5708 ;	genGoto
   13C8 C3 9C 13           5709 	jp	00114$
                           5710 ;	genLabel
   13CB                    5711 00116$:
                           5712 ;	paint.c 483
                           5713 ;	genAssign
                           5714 ;	AOP_STK for _run_slowdown_1_1
   13CB F8 05              5715 	lda	hl,5(sp)
   13CD 36 01              5716 	ld	(hl),#0x01
                           5717 ;	paint.c 484
                           5718 ;	genAssign
                           5719 ;	AOP_STK for _run_erased_1_1
   13CF 2B                 5720 	dec	hl
   13D0 2B                 5721 	dec	hl
   13D1 36 00              5722 	ld	(hl),#0x00
                           5723 ;	genAssign
                           5724 ;	AOP_STK for _run_drawn_1_1
   13D3 23                 5725 	inc	hl
   13D4 36 00              5726 	ld	(hl),#0x00
                           5727 ;	genGoto
   13D6 C3 DD 13           5728 	jp	00119$
                           5729 ;	genLabel
   13D9                    5730 00118$:
                           5731 ;	paint.c 486
                           5732 ;	genAssign
                           5733 ;	AOP_STK for _run_slowdown_1_1
   13D9 F8 05              5734 	lda	hl,5(sp)
   13DB 36 0A              5735 	ld	(hl),#0x0A
                           5736 ;	genLabel
   13DD                    5737 00119$:
                           5738 ;	paint.c 487
                           5739 ;	genAnd
                           5740 ;	AOP_STK for _run_key_1_1
   13DD F8 06              5741 	lda	hl,6(sp)
   13DF 7E                 5742 	ld	a,(hl)
   13E0 E6 40              5743 	and	a,#0x40
   13E2 20 03              5744 	jr	nz,00162$
   13E4 C3 1D 14           5745 	jp	00121$
   13E7                    5746 00162$:
                           5747 ;	paint.c 488
                           5748 ;	genAssign
   13E7 06 40              5749 	ld	b,#0x40
   13E9 0E FF              5750 	ld	c,#0xFF
                           5751 ;	genAssign
                           5752 ;	AOP_STK for _run_sloc0_1_0
   13EB F8 01              5753 	lda	hl,1(sp)
   13ED 36 40              5754 	ld	(hl),#0x40
   13EF 23                 5755 	inc	hl
   13F0 36 FF              5756 	ld	(hl),#0xFF
                           5757 ;	genPointerGet
                           5758 ;	AOP_STK for _run_sloc0_1_0
                           5759 ;	AOP_STK for _run_sloc1_1_0
   13F2 2B                 5760 	dec	hl
   13F3 5E                 5761 	ld	e,(hl)
   13F4 23                 5762 	inc	hl
   13F5 56                 5763 	ld	d,(hl)
   13F6 1A                 5764 	ld	a,(de)
   13F7 2B                 5765 	dec	hl
   13F8 2B                 5766 	dec	hl
                           5767 ;	genAnd
                           5768 ;	AOP_STK for _run_sloc1_1_0
   13F9 77                 5769 	ld      (hl),a
                           5770 ; Removed redundent load
   13FA E6 FD              5771 	and	a,#0xFD
                           5772 ;	genAssign (pointer)
   13FC 58                 5773 	ld	e,b
   13FD 51                 5774 	ld	d,c
   13FE 12                 5775 	ld	(de),a
                           5776 ;	paint.c 489
                           5777 ;	genCall
                           5778 ; _saveRegsForCall: sendSetSize: 0 deInUse: 0 bcInUse: 0 deSending: 0
   13FF CD 3B 10           5779 	call	_menu
                           5780 ;	paint.c 490
                           5781 ;	genCall
                           5782 ; _saveRegsForCall: sendSetSize: 0 deInUse: 0 bcInUse: 0 deSending: 0
   1402 CD 00 00           5783 	call	_set_cursor
                           5784 ;	paint.c 491
                           5785 ;	genCall
                           5786 ; _saveRegsForCall: sendSetSize: 0 deInUse: 0 bcInUse: 0 deSending: 0
   1405 CD 3A 09           5787 	call	_move_cursor
                           5788 ;	paint.c 492
                           5789 ;	genAssign
   1408 01 40 FF           5790 	ld	bc,#0xFF40
                           5791 ;	genAssign
                           5792 ;	AOP_STK for _run_sloc0_1_0
   140B F8 01              5793 	lda	hl,1(sp)
   140D 36 40              5794 	ld	(hl),#0x40
   140F 23                 5795 	inc	hl
   1410 36 FF              5796 	ld	(hl),#0xFF
                           5797 ;	genPointerGet
                           5798 ;	AOP_STK for _run_sloc0_1_0
                           5799 ;	AOP_STK for _run_sloc1_1_0
   1412 2B                 5800 	dec	hl
   1413 5E                 5801 	ld	e,(hl)
   1414 23                 5802 	inc	hl
   1415 56                 5803 	ld	d,(hl)
   1416 1A                 5804 	ld	a,(de)
   1417 2B                 5805 	dec	hl
   1418 2B                 5806 	dec	hl
                           5807 ;	genOr
                           5808 ;	AOP_STK for _run_sloc1_1_0
   1419 77                 5809 	ld      (hl),a
                           5810 ; Removed redundent load
   141A F6 02              5811 	or	a,#0x02
                           5812 ;	genAssign (pointer)
   141C 02                 5813 	ld	(bc),a
                           5814 ;	genLabel
   141D                    5815 00121$:
                           5816 ;	paint.c 494
                           5817 ;	genAnd
                           5818 ;	AOP_STK for _run_key_1_1
   141D F8 06              5819 	lda	hl,6(sp)
   141F 7E                 5820 	ld	a,(hl)
   1420 E6 30              5821 	and	a,#0x30
                           5822 ;	genCmpEq
                           5823 ; genCmpEq: left 1, right 1, result 0
   1422 4F                 5824 	ld	c,a
   1423 FE 10              5825 	cp	a,#0x10
   1425 C2 70 14           5826 	jp	nz,00125$
   1428 18 03              5827 	jr	00164$
   142A                    5828 00163$:
   142A C3 70 14           5829 	jp	00125$
   142D                    5830 00164$:
                           5831 ;	paint.c 495
                           5832 ;	genIfx
                           5833 ;	AOP_STK for _run_drawn_1_1
   142D AF                 5834 	xor	a,a
   142E F8 04              5835 	lda	hl,4(sp)
   1430 B6                 5836 	or	a,(hl)
   1431 C2 74 14           5837 	jp	nz,00126$
                           5838 ;	paint.c 496
                           5839 ;	genPlus
                           5840 ;	AOP_STK for _run_drawn_1_1
                           5841 ;	genPlusIncr
   1434 34                 5842 	inc	(hl)
                           5843 ;	paint.c 497
                           5844 ;	genPlus
                           5845 ;	AOP_HL for _current_mode
                           5846 ;	Can't optimise plus by inc, falling back to the normal way
   1435 3E 36              5847 	ld	a,#<_modes
   1437 21 02 03           5848 	ld	hl,#_current_mode
   143A 86                 5849 	add	a,(hl)
   143B 4F                 5850 	ld	c,a
   143C 3E 09              5851 	ld	a,#>_modes
   143E CE 00              5852 	adc	a,#0x00
   1440 47                 5853 	ld	b,a
                           5854 ;	genPointerGet
   1441 0A                 5855 	ld	a,(bc)
   1442 4F                 5856 	ld	c,a
                           5857 ;	genPlus
                           5858 ;	AOP_HL for _current_color
                           5859 ;	AOP_STK for _run_sloc0_1_0
                           5860 ;	Can't optimise plus by inc, falling back to the normal way
   1443 11 32 09           5861 	ld	de,#_colors
   1446 21 01 03           5862 	ld	hl,#_current_color
   1449 6E                 5863 	ld	l,(hl)
   144A 26 00              5864 	ld	h,#0x00
   144C 19                 5865 	add	hl,de
   144D 7D                 5866 	ld	a,l
   144E 54                 5867 	ld	d,h
   144F F8 01              5868 	lda	hl,1(sp)
                           5869 ;	genPointerGet
                           5870 ;	AOP_STK for _run_sloc0_1_0
   1451 22                 5871 	ld	(hl+),a
   1452 72                 5872 	ld	(hl),d
   1453 5F                 5873 	ld	e,a
   1454 1A                 5874 	ld	a,(de)
   1455 47                 5875 	ld	b,a
                           5876 ;	genIpush
                           5877 ; _saveRegsForCall: sendSetSize: 0 deInUse: 0 bcInUse: 0 deSending: 0
   1456 79                 5878 	ld	a,c
   1457 F5                 5879 	push	af
   1458 33                 5880 	inc	sp
                           5881 ;	genIpush
   1459 78                 5882 	ld	a,b
   145A F5                 5883 	push	af
   145B 33                 5884 	inc	sp
                           5885 ;	genIpush
                           5886 ;	AOP_HL for _cursor_y
   145C 21 06 03           5887 	ld	hl,#_cursor_y
   145F 7E                 5888 	ld	a,(hl)
   1460 F5                 5889 	push	af
   1461 33                 5890 	inc	sp
                           5891 ;	genIpush
                           5892 ;	AOP_HL for _cursor_x
   1462 21 05 03           5893 	ld	hl,#_cursor_x
   1465 7E                 5894 	ld	a,(hl)
   1466 F5                 5895 	push	af
   1467 33                 5896 	inc	sp
                           5897 ;	genCall
   1468 CD 00 00           5898 	call	_plot
   146B E8 04              5899 	lda	sp,4(sp)
                           5900 ;	genGoto
   146D C3 74 14           5901 	jp	00126$
                           5902 ;	genLabel
   1470                    5903 00125$:
                           5904 ;	paint.c 500
                           5905 ;	genAssign
                           5906 ;	AOP_STK for _run_drawn_1_1
   1470 F8 04              5907 	lda	hl,4(sp)
   1472 36 00              5908 	ld	(hl),#0x00
                           5909 ;	genLabel
   1474                    5910 00126$:
                           5911 ;	paint.c 501
                           5912 ;	genAnd
                           5913 ;	AOP_STK for _run_key_1_1
   1474 F8 06              5914 	lda	hl,6(sp)
   1476 7E                 5915 	ld	a,(hl)
   1477 E6 30              5916 	and	a,#0x30
                           5917 ;	genCmpEq
                           5918 ; genCmpEq: left 1, right 1, result 0
   1479 4F                 5919 	ld	c,a
   147A FE 20              5920 	cp	a,#0x20
   147C C2 A4 14           5921 	jp	nz,00130$
   147F 18 03              5922 	jr	00166$
   1481                    5923 00165$:
   1481 C3 A4 14           5924 	jp	00130$
   1484                    5925 00166$:
                           5926 ;	paint.c 502
                           5927 ;	genIfx
                           5928 ;	AOP_STK for _run_erased_1_1
   1484 AF                 5929 	xor	a,a
   1485 F8 03              5930 	lda	hl,3(sp)
   1487 B6                 5931 	or	a,(hl)
   1488 C2 37 13           5932 	jp	nz,00133$
                           5933 ;	paint.c 503
                           5934 ;	genPlus
                           5935 ;	AOP_STK for _run_erased_1_1
                           5936 ;	genPlusIncr
   148B 34                 5937 	inc	(hl)
                           5938 ;	paint.c 504
                           5939 ;	genIpush
                           5940 ; _saveRegsForCall: sendSetSize: 0 deInUse: 0 bcInUse: 0 deSending: 0
   148C 21 00 00           5941 	ld	hl,#0x0000
   148F E5                 5942 	push	hl
                           5943 ;	genIpush
                           5944 ;	AOP_HL for _cursor_y
   1490 21 06 03           5945 	ld	hl,#_cursor_y
   1493 7E                 5946 	ld	a,(hl)
   1494 F5                 5947 	push	af
   1495 33                 5948 	inc	sp
                           5949 ;	genIpush
                           5950 ;	AOP_HL for _cursor_x
   1496 21 05 03           5951 	ld	hl,#_cursor_x
   1499 7E                 5952 	ld	a,(hl)
   149A F5                 5953 	push	af
   149B 33                 5954 	inc	sp
                           5955 ;	genCall
   149C CD 00 00           5956 	call	_plot
   149F E8 04              5957 	lda	sp,4(sp)
                           5958 ;	genGoto
   14A1 C3 37 13           5959 	jp	00133$
                           5960 ;	genLabel
   14A4                    5961 00130$:
                           5962 ;	paint.c 507
                           5963 ;	genAssign
                           5964 ;	AOP_STK for _run_erased_1_1
   14A4 F8 03              5965 	lda	hl,3(sp)
   14A6 36 00              5966 	ld	(hl),#0x00
                           5967 ;	genGoto
   14A8 C3 37 13           5968 	jp	00133$
                           5969 ;	genLabel
   14AB                    5970 00135$:
                           5971 ;	genEndFunction
   14AB E8 07              5972 	lda	sp,7(sp)
   14AD C9                 5973 	ret
   14AE                    5974 ___run_end:
                           5975 ;	paint.c 511
                           5976 ;	genLabel
                           5977 ;	genFunction
                           5978 ;	---------------------------------
                           5979 ; Function main
                           5980 ; ---------------------------------
   14AE                    5981 ___main_start:
   14AE                    5982 _main:
                           5983 	
                           5984 ;	paint.c 514
                           5985 ;	genAssign
   14AE 01 49 FF           5986 	ld	bc,#0xFF49
                           5987 ;	genAssign (pointer)
   14B1 3E E0              5988 	ld	a,#0xE0
   14B3 02                 5989 	ld	(bc),a
                           5990 ;	paint.c 516
                           5991 ;	genCall
                           5992 ; _saveRegsForCall: sendSetSize: 0 deInUse: 0 bcInUse: 0 deSending: 0
   14B4 CD 0E 0F           5993 	call	_splash
                           5994 ;	paint.c 518
                           5995 ;	genAssign
                           5996 ;	AOP_HL for _current_tool
   14B7 21 00 03           5997 	ld	hl,#_current_tool
   14BA 36 00              5998 	ld	(hl),#0x00
                           5999 ;	paint.c 519
                           6000 ;	genAssign
                           6001 ;	AOP_HL for _current_color
   14BC 21 01 03           6002 	ld	hl,#_current_color
   14BF 36 03              6003 	ld	(hl),#0x03
                           6004 ;	paint.c 520
                           6005 ;	genAssign
                           6006 ;	AOP_HL for _current_mode
   14C1 21 02 03           6007 	ld	hl,#_current_mode
   14C4 36 00              6008 	ld	(hl),#0x00
                           6009 ;	paint.c 521
                           6010 ;	genAssign
                           6011 ;	AOP_HL for _current_cursor
   14C6 21 03 03           6012 	ld	hl,#_current_cursor
   14C9 36 01              6013 	ld	(hl),#0x01
                           6014 ;	paint.c 522
                           6015 ;	genAssign
                           6016 ;	AOP_HL for _menu_cursor_pos
   14CB 21 04 03           6017 	ld	hl,#_menu_cursor_pos
   14CE 36 00              6018 	ld	(hl),#0x00
                           6019 ;	paint.c 523
                           6020 ;	genAssign
                           6021 ;	AOP_HL for _cursor_x
   14D0 21 05 03           6022 	ld	hl,#_cursor_x
   14D3 36 50              6023 	ld	(hl),#0x50
                           6024 ;	paint.c 524
                           6025 ;	genAssign
                           6026 ;	AOP_HL for _cursor_y
   14D5 21 06 03           6027 	ld	hl,#_cursor_y
   14D8 36 48              6028 	ld	(hl),#0x48
                           6029 ;	paint.c 526
                           6030 ;	genCall
                           6031 ; _saveRegsForCall: sendSetSize: 0 deInUse: 0 bcInUse: 0 deSending: 0
   14DA CD 0C 13           6032 	call	_run
                           6033 ;	genLabel
   14DD                    6034 00101$:
                           6035 ;	genEndFunction
                           6036 	
   14DD C9                 6037 	ret
   14DE                    6038 ___main_end:
                           6039 	.area _CODE
ASxxxx Assembler V01.75  (GameBoy Z80-like CPU), page 1.

Symbol Table

  0 ___change_icon_end                 0E06 R
  0 ___change_icon_start               0C3E R
  0 ___main_end                        14DE R
  0 ___main_start                      14AE R
  0 ___menu_end                        130C R
  0 ___menu_start                      103B R
  0 ___move_cursor_end                 0A42 R
  0 ___move_cursor_start               093A R
  0 ___move_menu_cursor_end            0AC2 R
  0 ___move_menu_cursor_start          0A42 R
  0 ___reset_icon_end                  0F0E R
  0 ___reset_icon_start                0E06 R
  0 ___run_end                         14AE R
  0 ___run_start                       130C R
  0 ___set_cursor_end                  0110 R
  0 ___set_cursor_start                0000 R
  0 ___set_icon_end                    0C3E R
  0 ___set_icon_start                  0AC2 R
  0 ___splash_end                      103B R
  0 ___splash_start                    0F0E R
  0 _change_icon                       0C3E GR
  0 _colors                            0932 GR
  1 _current_color                     0301 GR
  1 _current_cursor                    0303 GR
  1 _current_mode                      0302 GR
  1 _current_tool                      0300 GR
  1 _cursor_x                          0305 GR
  1 _cursor_y                          0306 GR
  0 _cursors                           07C4 GR
  0 _cursors_data                      07E2 GR
  0 _data                              01C4 GR
  1 _data_buffer                       0000 GR
  0 _icons                             0110 GR
    _joypad                            **** GX
  0 _main                              14AE GR
  0 _menu                              103B GR
  1 _menu_cursor_pos                   0304 GR
  0 _modes                             0936 GR
  0 _move_cursor                       093A GR
  0 _move_menu_cursor                  0A42 GR
    _move_sprite                       **** GX
    _plot                              **** GX
  0 _reset_icon                        0E06 GR
  0 _run                               130C GR
  0 _selected_data                     04C4 GR
  0 _set_cursor                        0000 GR
  0 _set_icon                          0AC2 GR
    _set_sprite_data                   **** GX
    _set_sprite_prop                   **** GX
    _set_sprite_tile                   **** GX
  0 _splash                            0F0E GR
    _switch_data                       **** GX
    _wait_vbl_done                     **** GX
    _waitpadup                         **** GX

ASxxxx Assembler V01.75  (GameBoy Z80-like CPU), page 2.

Area Table

   0 _CODE                              size 14DE   flags 0
   1 _DATA                              size  307   flags 0
   2 _OVERLAY                           size    0   flags 0
   3 _ISEG                              size    0   flags 0
   4 _BSEG                              size    0   flags 0
   5 _XSEG                              size    0   flags 0
   6 _GSINIT                            size    0   flags 0
   7 _GSFINAL                           size    0   flags 0
   8 _HOME                              size    0   flags 0
